ccopy_reg
_reconstructor
p1
(cventure.unit.history
History
p2
c__builtin__
object
p3
NtRp4
(dp5
S'nameToType'
p6
(dp7
S'logscore'
p8
S'number'
p9
sS'phi'
p10
S'sp'
p11
sS'count_birds'
p12
S'sp'
p13
sS'features'
p14
S'dict'
p15
sS'move'
p16
S'sp'
p17
sS'hypers3'
p18
S'number'
p19
sS'sweep_iters'
p20
S'count'
p21
sS'observe_birds'
p22
S'sp'
p23
sS'sweep time (s)'
p24
g21
sS'hypers0'
p25
S'number'
p26
sS'hypers1'
p27
S'number'
p28
sS'hypers2'
p29
S'number'
p30
sS'get_bird_move_dist'
p31
S'sp'
p32
sS'cell_array'
p33
S'array'
p34
sS'get_bird_pos'
p35
S'sp'
p36
ssS'parameters'
p37
(dp38
S'venture_random_seed'
p39
I0
sS'cells'
p40
I16
sS'days'
p41
(lp42
I0
aI1
aI2
aI3
aI4
aI5
aI6
aI7
aI8
aI9
aI10
aI11
aI12
aI13
aI14
aI15
aI16
aI17
aI18
aI19
asS'name'
p43
S'onebird'
p44
sS'years'
p45
(lp46
I14
assS'hypers'
p47
(lp48
cnumpy.core.multiarray
scalar
p49
(cnumpy
dtype
p50
(S'f8'
I0
I1
tRp51
(I3
S'<'
NNNI-1
I-1
I0
tbS'\x06h\x8a\x17\x19\xb8!@'
tRp52
ag49
(g51
S'\xa2\x93\x8f\xf2\xe7\xf40@'
tRp53
ag49
(g51
S'\x10\xe45\x84+\x85\xf8?'
tRp54
ag49
(g51
S'\xc1n\xc2\xfa\x1e\xab)@'
tRp55
asS'label'
p56
S'run_from_conditional'
p57
sS'nameToSeries'
p58
(dp59
g8
(lp60
g1
(cventure.unit.history
Series
p61
g3
NtRp62
(dp63
S'hist'
p64
I01
sS'_xvals'
p65
NsS'values'
p66
(lp67
F-17.460681601665176
aF-17.423191922842559
aF-16.654600622678853
aF-17.904014571453938
aF-18.015529173111929
aF-21.007254786490318
aF-17.166522279193099
aF-17.26638443924363
aF-18.66130703045749
aF-19.056197604099196
aF-18.010762790145193
aF-17.908078574571391
aF-18.272200236423991
aF-18.121416295453116
aF-17.855552333861393
aF-19.502393991499979
aF-23.161675416316186
aF-19.482718227719484
aF-19.366880670167664
aF-23.197405052665804
asg56
S'run 0'
p68
sbag1
(g61
g3
NtRp69
(dp70
g64
I01
sg65
Nsg66
(lp71
F-18.50990409068465
aF-18.569641365849616
aF-18.269083176219382
aF-18.81628001900016
aF-22.683620043248244
aF-19.866020398033527
aF-19.983826283364582
aF-17.828610279954322
aF-17.10150014101929
aF-19.303412047436282
aF-16.940675706732296
aF-18.281775593285126
aF-20.873852075298462
aF-17.38370911558512
aF-17.286802159597151
aF-17.270011394827215
aF-18.690512888698805
aF-17.326421892059773
aF-18.116451337263769
aF-20.021281544168058
asg56
S'run 1'
p72
sbag1
(g61
g3
NtRp73
(dp74
g64
I01
sg65
Nsg66
(lp75
F-22.688896127333042
aF-22.724524741919847
aF-23.344912000116977
aF-22.580850159017213
aF-21.495896381692283
aF-21.649830775764322
aF-23.562536155883482
aF-22.211014359206491
aF-19.793130299727736
aF-22.42942459640593
aF-21.246045795453753
aF-20.199570762699945
aF-21.207240251614227
aF-21.785865341838019
aF-20.366331461678303
aF-21.623816484944342
aF-20.258502017792171
aF-18.426360991109174
aF-21.581546227584084
aF-19.287416509838376
asg56
S'run 2'
p76
sbasg10
(lp77
g1
(g61
g3
NtRp78
(dp79
g64
I01
sg65
Nsg66
(lp80
S'unknown'
p81
aS'unknown'
p82
aS'unknown'
p83
aS'unknown'
p84
aS'unknown'
p85
aS'unknown'
p86
aS'unknown'
p87
aS'unknown'
p88
aS'unknown'
p89
aS'unknown'
p90
aS'unknown'
p91
aS'unknown'
p92
aS'unknown'
p93
aS'unknown'
p94
aS'unknown'
p95
aS'unknown'
p96
aS'unknown'
p97
aS'unknown'
p98
aS'unknown'
p99
aS'unknown'
p100
asg56
g68
sbag1
(g61
g3
NtRp101
(dp102
g64
I01
sg65
Nsg66
(lp103
S'unknown'
p104
aS'unknown'
p105
aS'unknown'
p106
aS'unknown'
p107
aS'unknown'
p108
aS'unknown'
p109
aS'unknown'
p110
aS'unknown'
p111
aS'unknown'
p112
aS'unknown'
p113
aS'unknown'
p114
aS'unknown'
p115
aS'unknown'
p116
aS'unknown'
p117
aS'unknown'
p118
aS'unknown'
p119
aS'unknown'
p120
aS'unknown'
p121
aS'unknown'
p122
aS'unknown'
p123
asg56
g72
sbag1
(g61
g3
NtRp124
(dp125
g64
I01
sg65
Nsg66
(lp126
S'unknown'
p127
aS'unknown'
p128
aS'unknown'
p129
aS'unknown'
p130
aS'unknown'
p131
aS'unknown'
p132
aS'unknown'
p133
aS'unknown'
p134
aS'unknown'
p135
aS'unknown'
p136
aS'unknown'
p137
aS'unknown'
p138
aS'unknown'
p139
aS'unknown'
p140
aS'unknown'
p141
aS'unknown'
p142
aS'unknown'
p143
aS'unknown'
p144
aS'unknown'
p145
aS'unknown'
p146
asg56
g76
sbasg12
(lp147
g1
(g61
g3
NtRp148
(dp149
g64
I01
sg65
Nsg66
(lp150
S'unknown'
p151
aS'unknown'
p152
aS'unknown'
p153
aS'unknown'
p154
aS'unknown'
p155
aS'unknown'
p156
aS'unknown'
p157
aS'unknown'
p158
aS'unknown'
p159
aS'unknown'
p160
aS'unknown'
p161
aS'unknown'
p162
aS'unknown'
p163
aS'unknown'
p164
aS'unknown'
p165
aS'unknown'
p166
aS'unknown'
p167
aS'unknown'
p168
aS'unknown'
p169
aS'unknown'
p170
asg56
g68
sbag1
(g61
g3
NtRp171
(dp172
g64
I01
sg65
Nsg66
(lp173
S'unknown'
p174
aS'unknown'
p175
aS'unknown'
p176
aS'unknown'
p177
aS'unknown'
p178
aS'unknown'
p179
aS'unknown'
p180
aS'unknown'
p181
aS'unknown'
p182
aS'unknown'
p183
aS'unknown'
p184
aS'unknown'
p185
aS'unknown'
p186
aS'unknown'
p187
aS'unknown'
p188
aS'unknown'
p189
aS'unknown'
p190
aS'unknown'
p191
aS'unknown'
p192
aS'unknown'
p193
asg56
g72
sbag1
(g61
g3
NtRp194
(dp195
g64
I01
sg65
Nsg66
(lp196
S'unknown'
p197
aS'unknown'
p198
aS'unknown'
p199
aS'unknown'
p200
aS'unknown'
p201
aS'unknown'
p202
aS'unknown'
p203
aS'unknown'
p204
aS'unknown'
p205
aS'unknown'
p206
aS'unknown'
p207
aS'unknown'
p208
aS'unknown'
p209
aS'unknown'
p210
aS'unknown'
p211
aS'unknown'
p212
aS'unknown'
p213
aS'unknown'
p214
aS'unknown'
p215
aS'unknown'
p216
asg56
g76
sbasg14
(lp217
g1
(g61
g3
NtRp218
(dp219
g64
I01
sg65
Nsg66
(lp220
S'opaque'
p221
aS'opaque'
p222
aS'opaque'
p223
aS'opaque'
p224
aS'opaque'
p225
aS'opaque'
p226
aS'opaque'
p227
aS'opaque'
p228
aS'opaque'
p229
aS'opaque'
p230
aS'opaque'
p231
aS'opaque'
p232
aS'opaque'
p233
aS'opaque'
p234
aS'opaque'
p235
aS'opaque'
p236
aS'opaque'
p237
aS'opaque'
p238
aS'opaque'
p239
aS'opaque'
p240
asg56
g68
sbag1
(g61
g3
NtRp241
(dp242
g64
I01
sg65
Nsg66
(lp243
S'opaque'
p244
aS'opaque'
p245
aS'opaque'
p246
aS'opaque'
p247
aS'opaque'
p248
aS'opaque'
p249
aS'opaque'
p250
aS'opaque'
p251
aS'opaque'
p252
aS'opaque'
p253
aS'opaque'
p254
aS'opaque'
p255
aS'opaque'
p256
aS'opaque'
p257
aS'opaque'
p258
aS'opaque'
p259
aS'opaque'
p260
aS'opaque'
p261
aS'opaque'
p262
aS'opaque'
p263
asg56
g72
sbag1
(g61
g3
NtRp264
(dp265
g64
I01
sg65
Nsg66
(lp266
S'opaque'
p267
aS'opaque'
p268
aS'opaque'
p269
aS'opaque'
p270
aS'opaque'
p271
aS'opaque'
p272
aS'opaque'
p273
aS'opaque'
p274
aS'opaque'
p275
aS'opaque'
p276
aS'opaque'
p277
aS'opaque'
p278
aS'opaque'
p279
aS'opaque'
p280
aS'opaque'
p281
aS'opaque'
p282
aS'opaque'
p283
aS'opaque'
p284
aS'opaque'
p285
aS'opaque'
p286
asg56
g76
sbasg16
(lp287
g1
(g61
g3
NtRp288
(dp289
g64
I01
sg65
Nsg66
(lp290
S'unknown'
p291
aS'unknown'
p292
aS'unknown'
p293
aS'unknown'
p294
aS'unknown'
p295
aS'unknown'
p296
aS'unknown'
p297
aS'unknown'
p298
aS'unknown'
p299
aS'unknown'
p300
aS'unknown'
p301
aS'unknown'
p302
aS'unknown'
p303
aS'unknown'
p304
aS'unknown'
p305
aS'unknown'
p306
aS'unknown'
p307
aS'unknown'
p308
aS'unknown'
p309
aS'unknown'
p310
asg56
g68
sbag1
(g61
g3
NtRp311
(dp312
g64
I01
sg65
Nsg66
(lp313
S'unknown'
p314
aS'unknown'
p315
aS'unknown'
p316
aS'unknown'
p317
aS'unknown'
p318
aS'unknown'
p319
aS'unknown'
p320
aS'unknown'
p321
aS'unknown'
p322
aS'unknown'
p323
aS'unknown'
p324
aS'unknown'
p325
aS'unknown'
p326
aS'unknown'
p327
aS'unknown'
p328
aS'unknown'
p329
aS'unknown'
p330
aS'unknown'
p331
aS'unknown'
p332
aS'unknown'
p333
asg56
g72
sbag1
(g61
g3
NtRp334
(dp335
g64
I01
sg65
Nsg66
(lp336
S'unknown'
p337
aS'unknown'
p338
aS'unknown'
p339
aS'unknown'
p340
aS'unknown'
p341
aS'unknown'
p342
aS'unknown'
p343
aS'unknown'
p344
aS'unknown'
p345
aS'unknown'
p346
aS'unknown'
p347
aS'unknown'
p348
aS'unknown'
p349
aS'unknown'
p350
aS'unknown'
p351
aS'unknown'
p352
aS'unknown'
p353
aS'unknown'
p354
aS'unknown'
p355
aS'unknown'
p356
asg56
g76
sbasg18
(lp357
g1
(g61
g3
NtRp358
(dp359
g64
I01
sg65
Nsg66
(lp360
F6.9328900290615785
aF6.1824467722675207
aF5.5528511123923847
aF5.2159164272673397
aF5.3463951325669097
aF2.8491669632952714
aF6.1997199494539039
aF6.3569246597643616
aF7.5285069059638143
aF7.2596086328278346
aF10.108514380273089
aF10.304322631678717
aF12.032298994154781
aF11.756594330727761
aF10.102974776763016
aF11.252687450630592
aF14.311543790581773
aF15.14984883382575
aF13.506725871885198
aF20.224141691087794
asg56
g68
sbag1
(g61
g3
NtRp361
(dp362
g64
I01
sg65
Nsg66
(lp363
F9.0568535321855439
aF9.206777883415425
aF11.185776839162509
aF12.345808918753495
aF15.75156008130703
aF10.399886248472043
aF8.6933075320817075
aF8.6373199362333182
aF8.422415147199624
aF5.5748734525254706
aF6.3909808637317944
aF5.0982149302678286
aF9.452669501531318
aF8.6532984753048385
aF7.7683001498843645
aF6.4942199067440765
aF5.4994573550329058
aF6.5268626341513265
aF5.5454052650218681
aF5.4836166670583602
asg56
g72
sbag1
(g61
g3
NtRp364
(dp365
g64
I01
sg65
Nsg66
(lp366
F25.310763671989537
aF23.757786730213155
aF26.221278257422071
aF26.424792102306526
aF24.849802059587184
aF22.722823584911062
aF18.213864843814889
aF16.704945311142648
aF17.000081860189905
aF19.40283869847018
aF18.118945999819523
aF16.700238530187249
aF20.463977053131718
aF19.293586591563439
aF18.020130429731342
aF17.888048895025609
aF19.077307489450394
aF13.976568606778688
aF11.25522370979696
aF12.794903832008263
asg56
g76
sbasg20
(lp367
g1
(g61
g3
NtRp368
(dp369
g64
I01
sg65
Nsg66
(lp370
I17
aI4
aI4
aI4
aI4
aI4
aI4
aI4
aI4
aI4
aI4
aI4
aI4
aI4
aI4
aI4
aI4
aI4
aI4
aI4
asg56
g68
sbag1
(g61
g3
NtRp371
(dp372
g64
I01
sg65
Nsg66
(lp373
I17
aI4
aI4
aI4
aI4
aI4
aI4
aI4
aI4
aI4
aI4
aI4
aI4
aI4
aI4
aI4
aI4
aI4
aI4
aI4
asg56
g72
sbag1
(g61
g3
NtRp374
(dp375
g64
I01
sg65
Nsg66
(lp376
I17
aI4
aI4
aI4
aI4
aI4
aI4
aI4
aI4
aI4
aI4
aI4
aI4
aI4
aI4
aI4
aI4
aI4
aI4
aI4
asg56
g76
sbasg22
(lp377
g1
(g61
g3
NtRp378
(dp379
g64
I01
sg65
Nsg66
(lp380
S'unknown'
p381
aS'unknown'
p382
aS'unknown'
p383
aS'unknown'
p384
aS'unknown'
p385
aS'unknown'
p386
aS'unknown'
p387
aS'unknown'
p388
aS'unknown'
p389
aS'unknown'
p390
aS'unknown'
p391
aS'unknown'
p392
aS'unknown'
p393
aS'unknown'
p394
aS'unknown'
p395
aS'unknown'
p396
aS'unknown'
p397
aS'unknown'
p398
aS'unknown'
p399
aS'unknown'
p400
asg56
g68
sbag1
(g61
g3
NtRp401
(dp402
g64
I01
sg65
Nsg66
(lp403
S'unknown'
p404
aS'unknown'
p405
aS'unknown'
p406
aS'unknown'
p407
aS'unknown'
p408
aS'unknown'
p409
aS'unknown'
p410
aS'unknown'
p411
aS'unknown'
p412
aS'unknown'
p413
aS'unknown'
p414
aS'unknown'
p415
aS'unknown'
p416
aS'unknown'
p417
aS'unknown'
p418
aS'unknown'
p419
aS'unknown'
p420
aS'unknown'
p421
aS'unknown'
p422
aS'unknown'
p423
asg56
g72
sbag1
(g61
g3
NtRp424
(dp425
g64
I01
sg65
Nsg66
(lp426
S'unknown'
p427
aS'unknown'
p428
aS'unknown'
p429
aS'unknown'
p430
aS'unknown'
p431
aS'unknown'
p432
aS'unknown'
p433
aS'unknown'
p434
aS'unknown'
p435
aS'unknown'
p436
aS'unknown'
p437
aS'unknown'
p438
aS'unknown'
p439
aS'unknown'
p440
aS'unknown'
p441
aS'unknown'
p442
aS'unknown'
p443
aS'unknown'
p444
aS'unknown'
p445
aS'unknown'
p446
asg56
g76
sbasg24
(lp447
g1
(g61
g3
NtRp448
(dp449
g64
I01
sg65
Nsg66
(lp450
F84.844451904296875
aF75.777218103408813
aF78.015712022781372
aF78.022564888000488
aF76.83748197555542
aF72.161481857299805
aF79.754467010498047
aF77.409658908843994
aF76.692060947418213
aF80.675546169281006
aF74.957244157791138
aF75.267009973526001
aF75.08147406578064
aF77.848464965820312
aF78.43615198135376
aF70.542845010757446
aF80.659610033035278
aF81.443653106689453
aF78.608029127120972
aF77.393081903457642
asg56
g68
sbag1
(g61
g3
NtRp451
(dp452
g64
I01
sg65
Nsg66
(lp453
F75.753830909729004
aF80.459617853164673
aF79.215665102005005
aF75.020307064056396
aF82.084066152572632
aF81.761197805404663
aF82.084243059158325
aF81.259835004806519
aF76.043771982192993
aF77.282280921936035
aF78.554431915283203
aF73.326534986495972
aF72.480337858200073
aF83.281036138534546
aF75.8854820728302
aF70.1633620262146
aF62.058418989181519
aF64.082743167877197
aF63.473095893859863
aF65.351363897323608
asg56
g72
sbag1
(g61
g3
NtRp454
(dp455
g64
I01
sg65
Nsg66
(lp456
F78.895384073257446
aF73.992805957794189
aF65.896087884902954
aF69.109327077865601
aF74.032473087310791
aF72.159895181655884
aF80.272343158721924
aF67.082496881484985
aF73.193001985549927
aF73.004591941833496
aF71.745538949966431
aF68.675489902496338
aF65.227118968963623
aF69.181030988693237
aF71.438267230987549
aF68.588106870651245
aF70.011615991592407
aF67.632927894592285
aF70.507110118865967
aF71.488270998001099
asg56
g76
sbasg25
(lp457
g1
(g61
g3
NtRp458
(dp459
g64
I01
sg65
Nsg66
(lp460
F3.1950264117784335
aF1.6377716372849598
aF0.6872744851946696
aF0.0079556226090320148
aF2.2049880857707986
aF0.49294905137083522
aF4.0078224075045545
aF5.1478289777745125
aF0.36469476264250672
aF0.58929350471787589
aF2.3433292597913251
aF1.2097527456194206
aF5.438004085109255
aF0.74062799940490665
aF1.134126864718044
aF8.1644215994442995
aF8.8266225312421334
aF7.1416932667615693
aF2.2744303300138808
aF12.534992674184993
asg56
g68
sbag1
(g61
g3
NtRp461
(dp462
g64
I01
sg65
Nsg66
(lp463
F6.1781813414138238
aF4.1336420782849466
aF0.91328253504958934
aF4.290026525859715
aF6.4820077885918135
aF1.1889225020073007
aF9.311409236200566
aF2.8095494792986426
aF2.6003440404635159
aF3.8180861249990734
aF1.5700541422822853
aF5.8257695503125921
aF12.884648236898718
aF4.8194257501471114
aF3.9206770512401823
aF1.4783936429161759
aF2.5775297383577471
aF3.8395565456510425
aF6.5270027506067079
aF7.4823326495117577
asg56
g72
sbag1
(g61
g3
NtRp464
(dp465
g64
I01
sg65
Nsg66
(lp466
F2.0583694654848053
aF1.5146652979446737
aF8.716906739302118
aF3.7789431287276356
aF0.026650344758842075
aF4.5305197660299523
aF0.94068949529767787
aF1.4525646083246984
aF0.70504240153064124
aF5.7849089567954524
aF7.5421139974261404
aF0.1536633140269888
aF6.2158767618281621
aF5.3368610348658532
aF5.9545218537245557
aF4.4622022285236875
aF4.9759111501384918
aF1.7587204262491096
aF5.9764998792140034
aF6.5613739855911923
asg56
g76
sbasg27
(lp467
g1
(g61
g3
NtRp468
(dp469
g64
I01
sg65
Nsg66
(lp470
F8.9427861369494117
aF11.169401710509138
aF8.7593845532356376
aF10.816812840532197
aF9.5313596924371922
aF4.0718991560020132
aF8.3343756567517904
aF7.7896652662107151
aF15.514912786492001
aF15.369011859936219
aF16.250627581242032
aF19.322601677687715
aF18.398533357546484
aF21.542577542814779
aF17.146613502153954
aF16.224567989343548
aF22.473105313613225
aF23.825247884399758
aF26.02279133898908
aF28.886221199928315
asg56
g68
sbag1
(g61
g3
NtRp471
(dp472
g64
I01
sg65
Nsg66
(lp473
F10.693409840759502
aF12.648129549511324
aF19.315762670872722
aF19.016057819141515
aF28.623356486479359
aF18.543727111344534
aF10.272184124256793
aF12.810976349668511
aF13.773176272943971
aF9.5620173562701751
aF11.062214009018543
aF4.9245776603131155
aF7.9097151334117175
aF12.514360107670658
aF12.06483497330208
aF11.22163687226583
aF5.4822443038097131
aF7.799590973246719
aF4.4450249712730745
aF3.8606195416118005
asg56
g72
sbag1
(g61
g3
NtRp474
(dp475
g64
I01
sg65
Nsg66
(lp476
F50.007552450630335
aF47.647961139229587
aF43.697162042774096
aF47.784581807432915
aF48.805009780858711
aF42.295822481900487
aF31.153736916646395
aF30.885134442358968
aF33.272915193917612
aF35.537499675579859
aF30.616710142874332
aF30.931696946099478
aF36.175311551819362
aF34.772777041304565
aF30.863605920109485
aF29.590870940633216
aF33.629482101074061
aF25.849791784981971
aF19.832365331195387
aF18.123151972539468
asg56
g76
sbasg29
(lp477
g1
(g61
g3
NtRp478
(dp479
g64
I01
sg65
Nsg66
(lp480
F0.74488951852806928
aF0.97043961690067349
aF0.37745358642476573
aF2.5077117620193543
aF0.82565378241778742
aF3.551694254959223
aF1.849758395839066
aF0.82360286744295597
aF0.86290745405935498
aF3.2385882966639636
aF1.5142539826218555
aF0.21010166293884386
aF0.82237779425851776
aF2.0219107102063125
aF0.09854146024036832
aF0.76565333366678434
aF6.9959816453131722
aF1.3402629495158855
aF1.9748101822040134
aF2.7788390037747854
asg56
g68
sbag1
(g61
g3
NtRp481
(dp482
g64
I01
sg65
Nsg66
(lp483
F0.23305595787217265
aF2.1046139793243421
aF0.34711286192710478
aF0.00094932746821237818
aF5.97888530581774
aF5.2555180504563106
aF2.8380838697009296
aF1.601510251133589
aF0.24933758352543714
aF2.7126446473303423
aF1.3195644412814973
aF0.38892334012852381
aF1.0078732597178433
aF0.31777074283529677
aF0.93414735438690111
aF2.638779243539191
aF1.9049901304976853
aF0.74927951535888704
aF0.39089533526066517
aF1.7627267835375426
asg56
g72
sbag1
(g61
g3
NtRp484
(dp485
g64
I01
sg65
Nsg66
(lp486
F3.0900694696181445
aF3.8385904797922024
aF1.0927556189833945
aF0.50071568103181996
aF0.19818258657220142
aF0.88652945526992277
aF0.3979630942783266
aF6.1534436686247265
aF2.7664363900595599
aF0.51534934144671685
aF2.8662415209452177
aF2.3299901557725491
aF0.80198169368806027
aF4.5048960881461335
aF2.4882428936339211
aF3.0652420144281378
aF2.0279532761749492
aF1.4847456565815185
aF6.2116497194589515
aF0.055970823617092845
asg56
g76
sbasg31
(lp487
g1
(g61
g3
NtRp488
(dp489
g64
I01
sg65
Nsg66
(lp490
S'unknown'
p491
aS'unknown'
p492
aS'unknown'
p493
aS'unknown'
p494
aS'unknown'
p495
aS'unknown'
p496
aS'unknown'
p497
aS'unknown'
p498
aS'unknown'
p499
aS'unknown'
p500
aS'unknown'
p501
aS'unknown'
p502
aS'unknown'
p503
aS'unknown'
p504
aS'unknown'
p505
aS'unknown'
p506
aS'unknown'
p507
aS'unknown'
p508
aS'unknown'
p509
aS'unknown'
p510
asg56
g68
sbag1
(g61
g3
NtRp511
(dp512
g64
I01
sg65
Nsg66
(lp513
S'unknown'
p514
aS'unknown'
p515
aS'unknown'
p516
aS'unknown'
p517
aS'unknown'
p518
aS'unknown'
p519
aS'unknown'
p520
aS'unknown'
p521
aS'unknown'
p522
aS'unknown'
p523
aS'unknown'
p524
aS'unknown'
p525
aS'unknown'
p526
aS'unknown'
p527
aS'unknown'
p528
aS'unknown'
p529
aS'unknown'
p530
aS'unknown'
p531
aS'unknown'
p532
aS'unknown'
p533
asg56
g72
sbag1
(g61
g3
NtRp534
(dp535
g64
I01
sg65
Nsg66
(lp536
S'unknown'
p537
aS'unknown'
p538
aS'unknown'
p539
aS'unknown'
p540
aS'unknown'
p541
aS'unknown'
p542
aS'unknown'
p543
aS'unknown'
p544
aS'unknown'
p545
aS'unknown'
p546
aS'unknown'
p547
aS'unknown'
p548
aS'unknown'
p549
aS'unknown'
p550
aS'unknown'
p551
aS'unknown'
p552
aS'unknown'
p553
aS'unknown'
p554
aS'unknown'
p555
aS'unknown'
p556
asg56
g76
sbasg33
(lp557
g1
(g61
g3
NtRp558
(dp559
g64
I01
sg65
Nsg66
(lp560
(lp561
F0
aF1
aF2
aF3
aF4
aF5
aF6
aF7
aF8
aF9
aF10
aF11
aF12
aF13
aF14
aF15
aa(lp562
F0
aF1
aF2
aF3
aF4
aF5
aF6
aF7
aF8
aF9
aF10
aF11
aF12
aF13
aF14
aF15
aa(lp563
F0
aF1
aF2
aF3
aF4
aF5
aF6
aF7
aF8
aF9
aF10
aF11
aF12
aF13
aF14
aF15
aa(lp564
F0
aF1
aF2
aF3
aF4
aF5
aF6
aF7
aF8
aF9
aF10
aF11
aF12
aF13
aF14
aF15
aa(lp565
F0
aF1
aF2
aF3
aF4
aF5
aF6
aF7
aF8
aF9
aF10
aF11
aF12
aF13
aF14
aF15
aa(lp566
F0
aF1
aF2
aF3
aF4
aF5
aF6
aF7
aF8
aF9
aF10
aF11
aF12
aF13
aF14
aF15
aa(lp567
F0
aF1
aF2
aF3
aF4
aF5
aF6
aF7
aF8
aF9
aF10
aF11
aF12
aF13
aF14
aF15
aa(lp568
F0
aF1
aF2
aF3
aF4
aF5
aF6
aF7
aF8
aF9
aF10
aF11
aF12
aF13
aF14
aF15
aa(lp569
F0
aF1
aF2
aF3
aF4
aF5
aF6
aF7
aF8
aF9
aF10
aF11
aF12
aF13
aF14
aF15
aa(lp570
F0
aF1
aF2
aF3
aF4
aF5
aF6
aF7
aF8
aF9
aF10
aF11
aF12
aF13
aF14
aF15
aa(lp571
F0
aF1
aF2
aF3
aF4
aF5
aF6
aF7
aF8
aF9
aF10
aF11
aF12
aF13
aF14
aF15
aa(lp572
F0
aF1
aF2
aF3
aF4
aF5
aF6
aF7
aF8
aF9
aF10
aF11
aF12
aF13
aF14
aF15
aa(lp573
F0
aF1
aF2
aF3
aF4
aF5
aF6
aF7
aF8
aF9
aF10
aF11
aF12
aF13
aF14
aF15
aa(lp574
F0
aF1
aF2
aF3
aF4
aF5
aF6
aF7
aF8
aF9
aF10
aF11
aF12
aF13
aF14
aF15
aa(lp575
F0
aF1
aF2
aF3
aF4
aF5
aF6
aF7
aF8
aF9
aF10
aF11
aF12
aF13
aF14
aF15
aa(lp576
F0
aF1
aF2
aF3
aF4
aF5
aF6
aF7
aF8
aF9
aF10
aF11
aF12
aF13
aF14
aF15
aa(lp577
F0
aF1
aF2
aF3
aF4
aF5
aF6
aF7
aF8
aF9
aF10
aF11
aF12
aF13
aF14
aF15
aa(lp578
F0
aF1
aF2
aF3
aF4
aF5
aF6
aF7
aF8
aF9
aF10
aF11
aF12
aF13
aF14
aF15
aa(lp579
F0
aF1
aF2
aF3
aF4
aF5
aF6
aF7
aF8
aF9
aF10
aF11
aF12
aF13
aF14
aF15
aa(lp580
F0
aF1
aF2
aF3
aF4
aF5
aF6
aF7
aF8
aF9
aF10
aF11
aF12
aF13
aF14
aF15
aasg56
g68
sbag1
(g61
g3
NtRp581
(dp582
g64
I01
sg65
Nsg66
(lp583
(lp584
F0
aF1
aF2
aF3
aF4
aF5
aF6
aF7
aF8
aF9
aF10
aF11
aF12
aF13
aF14
aF15
aa(lp585
F0
aF1
aF2
aF3
aF4
aF5
aF6
aF7
aF8
aF9
aF10
aF11
aF12
aF13
aF14
aF15
aa(lp586
F0
aF1
aF2
aF3
aF4
aF5
aF6
aF7
aF8
aF9
aF10
aF11
aF12
aF13
aF14
aF15
aa(lp587
F0
aF1
aF2
aF3
aF4
aF5
aF6
aF7
aF8
aF9
aF10
aF11
aF12
aF13
aF14
aF15
aa(lp588
F0
aF1
aF2
aF3
aF4
aF5
aF6
aF7
aF8
aF9
aF10
aF11
aF12
aF13
aF14
aF15
aa(lp589
F0
aF1
aF2
aF3
aF4
aF5
aF6
aF7
aF8
aF9
aF10
aF11
aF12
aF13
aF14
aF15
aa(lp590
F0
aF1
aF2
aF3
aF4
aF5
aF6
aF7
aF8
aF9
aF10
aF11
aF12
aF13
aF14
aF15
aa(lp591
F0
aF1
aF2
aF3
aF4
aF5
aF6
aF7
aF8
aF9
aF10
aF11
aF12
aF13
aF14
aF15
aa(lp592
F0
aF1
aF2
aF3
aF4
aF5
aF6
aF7
aF8
aF9
aF10
aF11
aF12
aF13
aF14
aF15
aa(lp593
F0
aF1
aF2
aF3
aF4
aF5
aF6
aF7
aF8
aF9
aF10
aF11
aF12
aF13
aF14
aF15
aa(lp594
F0
aF1
aF2
aF3
aF4
aF5
aF6
aF7
aF8
aF9
aF10
aF11
aF12
aF13
aF14
aF15
aa(lp595
F0
aF1
aF2
aF3
aF4
aF5
aF6
aF7
aF8
aF9
aF10
aF11
aF12
aF13
aF14
aF15
aa(lp596
F0
aF1
aF2
aF3
aF4
aF5
aF6
aF7
aF8
aF9
aF10
aF11
aF12
aF13
aF14
aF15
aa(lp597
F0
aF1
aF2
aF3
aF4
aF5
aF6
aF7
aF8
aF9
aF10
aF11
aF12
aF13
aF14
aF15
aa(lp598
F0
aF1
aF2
aF3
aF4
aF5
aF6
aF7
aF8
aF9
aF10
aF11
aF12
aF13
aF14
aF15
aa(lp599
F0
aF1
aF2
aF3
aF4
aF5
aF6
aF7
aF8
aF9
aF10
aF11
aF12
aF13
aF14
aF15
aa(lp600
F0
aF1
aF2
aF3
aF4
aF5
aF6
aF7
aF8
aF9
aF10
aF11
aF12
aF13
aF14
aF15
aa(lp601
F0
aF1
aF2
aF3
aF4
aF5
aF6
aF7
aF8
aF9
aF10
aF11
aF12
aF13
aF14
aF15
aa(lp602
F0
aF1
aF2
aF3
aF4
aF5
aF6
aF7
aF8
aF9
aF10
aF11
aF12
aF13
aF14
aF15
aa(lp603
F0
aF1
aF2
aF3
aF4
aF5
aF6
aF7
aF8
aF9
aF10
aF11
aF12
aF13
aF14
aF15
aasg56
g72
sbag1
(g61
g3
NtRp604
(dp605
g64
I01
sg65
Nsg66
(lp606
(lp607
F0
aF1
aF2
aF3
aF4
aF5
aF6
aF7
aF8
aF9
aF10
aF11
aF12
aF13
aF14
aF15
aa(lp608
F0
aF1
aF2
aF3
aF4
aF5
aF6
aF7
aF8
aF9
aF10
aF11
aF12
aF13
aF14
aF15
aa(lp609
F0
aF1
aF2
aF3
aF4
aF5
aF6
aF7
aF8
aF9
aF10
aF11
aF12
aF13
aF14
aF15
aa(lp610
F0
aF1
aF2
aF3
aF4
aF5
aF6
aF7
aF8
aF9
aF10
aF11
aF12
aF13
aF14
aF15
aa(lp611
F0
aF1
aF2
aF3
aF4
aF5
aF6
aF7
aF8
aF9
aF10
aF11
aF12
aF13
aF14
aF15
aa(lp612
F0
aF1
aF2
aF3
aF4
aF5
aF6
aF7
aF8
aF9
aF10
aF11
aF12
aF13
aF14
aF15
aa(lp613
F0
aF1
aF2
aF3
aF4
aF5
aF6
aF7
aF8
aF9
aF10
aF11
aF12
aF13
aF14
aF15
aa(lp614
F0
aF1
aF2
aF3
aF4
aF5
aF6
aF7
aF8
aF9
aF10
aF11
aF12
aF13
aF14
aF15
aa(lp615
F0
aF1
aF2
aF3
aF4
aF5
aF6
aF7
aF8
aF9
aF10
aF11
aF12
aF13
aF14
aF15
aa(lp616
F0
aF1
aF2
aF3
aF4
aF5
aF6
aF7
aF8
aF9
aF10
aF11
aF12
aF13
aF14
aF15
aa(lp617
F0
aF1
aF2
aF3
aF4
aF5
aF6
aF7
aF8
aF9
aF10
aF11
aF12
aF13
aF14
aF15
aa(lp618
F0
aF1
aF2
aF3
aF4
aF5
aF6
aF7
aF8
aF9
aF10
aF11
aF12
aF13
aF14
aF15
aa(lp619
F0
aF1
aF2
aF3
aF4
aF5
aF6
aF7
aF8
aF9
aF10
aF11
aF12
aF13
aF14
aF15
aa(lp620
F0
aF1
aF2
aF3
aF4
aF5
aF6
aF7
aF8
aF9
aF10
aF11
aF12
aF13
aF14
aF15
aa(lp621
F0
aF1
aF2
aF3
aF4
aF5
aF6
aF7
aF8
aF9
aF10
aF11
aF12
aF13
aF14
aF15
aa(lp622
F0
aF1
aF2
aF3
aF4
aF5
aF6
aF7
aF8
aF9
aF10
aF11
aF12
aF13
aF14
aF15
aa(lp623
F0
aF1
aF2
aF3
aF4
aF5
aF6
aF7
aF8
aF9
aF10
aF11
aF12
aF13
aF14
aF15
aa(lp624
F0
aF1
aF2
aF3
aF4
aF5
aF6
aF7
aF8
aF9
aF10
aF11
aF12
aF13
aF14
aF15
aa(lp625
F0
aF1
aF2
aF3
aF4
aF5
aF6
aF7
aF8
aF9
aF10
aF11
aF12
aF13
aF14
aF15
aa(lp626
F0
aF1
aF2
aF3
aF4
aF5
aF6
aF7
aF8
aF9
aF10
aF11
aF12
aF13
aF14
aF15
aasg56
g76
sbasg35
(lp627
g1
(g61
g3
NtRp628
(dp629
g64
I01
sg65
Nsg66
(lp630
S'unknown'
p631
aS'unknown'
p632
aS'unknown'
p633
aS'unknown'
p634
aS'unknown'
p635
aS'unknown'
p636
aS'unknown'
p637
aS'unknown'
p638
aS'unknown'
p639
aS'unknown'
p640
aS'unknown'
p641
aS'unknown'
p642
aS'unknown'
p643
aS'unknown'
p644
aS'unknown'
p645
aS'unknown'
p646
aS'unknown'
p647
aS'unknown'
p648
aS'unknown'
p649
aS'unknown'
p650
asg56
g68
sbag1
(g61
g3
NtRp651
(dp652
g64
I01
sg65
Nsg66
(lp653
S'unknown'
p654
aS'unknown'
p655
aS'unknown'
p656
aS'unknown'
p657
aS'unknown'
p658
aS'unknown'
p659
aS'unknown'
p660
aS'unknown'
p661
aS'unknown'
p662
aS'unknown'
p663
aS'unknown'
p664
aS'unknown'
p665
aS'unknown'
p666
aS'unknown'
p667
aS'unknown'
p668
aS'unknown'
p669
aS'unknown'
p670
aS'unknown'
p671
aS'unknown'
p672
aS'unknown'
p673
asg56
g72
sbag1
(g61
g3
NtRp674
(dp675
g64
I01
sg65
Nsg66
(lp676
S'unknown'
p677
aS'unknown'
p678
aS'unknown'
p679
aS'unknown'
p680
aS'unknown'
p681
aS'unknown'
p682
aS'unknown'
p683
aS'unknown'
p684
aS'unknown'
p685
aS'unknown'
p686
aS'unknown'
p687
aS'unknown'
p688
aS'unknown'
p689
aS'unknown'
p690
aS'unknown'
p691
aS'unknown'
p692
aS'unknown'
p693
aS'unknown'
p694
aS'unknown'
p695
aS'unknown'
p696
asg56
g76
sbassS'data'
p697
(lp698
(S'(move 14 1 0)'
I0
tp699
a(S'(move 14 3 0)'
I5
tp700
a(S'(move 14 4 5)'
I5
tp701
a(S'(move 14 5 5)'
I15
tp702
a(S'(move 14 6 15)'
I15
tp703
a(S'(move 14 7 15)'
I15
tp704
a(S'(move 14 8 15)'
I15
tp705
a(S'(move 14 9 15)'
I15
tp706
a(S'(move 14 12 15)'
I15
tp707
a(S'(move 14 13 15)'
I15
tp708
a(S'(move 14 14 15)'
I15
tp709
a(S'(move 14 15 15)'
I15
tp710
a(S'(move 14 16 15)'
I15
tp711
asb.