ccopy_reg
_reconstructor
p1
(cventure.unit.history
History
p2
c__builtin__
object
p3
NtRp4
(dp5
S'nameToType'
p6
(dp7
S'logscore'
p8
S'number'
p9
sS'phi'
p10
S'sp'
p11
sS'count_birds'
p12
S'sp'
p13
sS'features'
p14
S'dict'
p15
sS'move'
p16
S'sp'
p17
sS'hypers3'
p18
S'number'
p19
sS'sweep_iters'
p20
S'count'
p21
sS'observe_birds'
p22
S'sp'
p23
sS'sweep time (s)'
p24
g21
sS'hypers0'
p25
S'number'
p26
sS'hypers1'
p27
S'number'
p28
sS'hypers2'
p29
S'number'
p30
sS'get_bird_move_dist'
p31
S'sp'
p32
sS'cell_array'
p33
S'array'
p34
sS'get_bird_pos'
p35
S'sp'
p36
ssS'parameters'
p37
(dp38
S'venture_random_seed'
p39
I0
sS'cells'
p40
I16
sS'days'
p41
(lp42
I0
aI1
aI2
aI3
aI4
aI5
aI6
aI7
aI8
aI9
aI10
aI11
aI12
aI13
aI14
aI15
aI16
aI17
aI18
aI19
asS'name'
p43
S'onebird'
p44
sS'years'
p45
(lp46
I14
assS'hypers'
p47
(lp48
cnumpy.core.multiarray
scalar
p49
(cnumpy
dtype
p50
(S'f8'
I0
I1
tRp51
(I3
S'<'
NNNI-1
I-1
I0
tbS"\x00\x14\x03'1\x10e\xc0"
tRp52
ag49
(g51
S'\xacb:F\xa4\x08U\xc0'
tRp53
ag49
(g51
S'0\x055\x0ep\x80+\xc0'
tRp54
ag49
(g51
S'0\xa45\x8e\xde\xf0O\xc0'
tRp55
asS'label'
p56
S'run_from_conditional'
p57
sS'nameToSeries'
p58
(dp59
g8
(lp60
g1
(cventure.unit.history
Series
p61
g3
NtRp62
(dp63
S'hist'
p64
I01
sS'_xvals'
p65
NsS'values'
p66
(lp67
F-3142.0243574731344
aF-1760.2205114255
aF-779.87084402705864
aF-342.76115574482515
aF-97.001391173472882
aF-72.293242394501419
aF-72.768399402033069
aF-73.957164262459997
aF-73.460365001297319
aF-72.700811147371581
aF-72.285216055249876
aF-73.119108367774828
aF-72.149930194054562
aF-71.927865070882362
aF-71.585001261679338
aF-70.994223748044533
aF-71.890151748864525
aF-70.949264119848024
aF-70.970361628626222
aF-71.217590358813084
asg56
S'run 0'
p68
sbasg10
(lp69
g1
(g61
g3
NtRp70
(dp71
g64
I01
sg65
Nsg66
(lp72
S'unknown'
p73
aS'unknown'
p74
aS'unknown'
p75
aS'unknown'
p76
aS'unknown'
p77
aS'unknown'
p78
aS'unknown'
p79
aS'unknown'
p80
aS'unknown'
p81
aS'unknown'
p82
aS'unknown'
p83
aS'unknown'
p84
aS'unknown'
p85
aS'unknown'
p86
aS'unknown'
p87
aS'unknown'
p88
aS'unknown'
p89
aS'unknown'
p90
aS'unknown'
p91
aS'unknown'
p92
asg56
g68
sbasg12
(lp93
g1
(g61
g3
NtRp94
(dp95
g64
I01
sg65
Nsg66
(lp96
S'unknown'
p97
aS'unknown'
p98
aS'unknown'
p99
aS'unknown'
p100
aS'unknown'
p101
aS'unknown'
p102
aS'unknown'
p103
aS'unknown'
p104
aS'unknown'
p105
aS'unknown'
p106
aS'unknown'
p107
aS'unknown'
p108
aS'unknown'
p109
aS'unknown'
p110
aS'unknown'
p111
aS'unknown'
p112
aS'unknown'
p113
aS'unknown'
p114
aS'unknown'
p115
aS'unknown'
p116
asg56
g68
sbasg14
(lp117
g1
(g61
g3
NtRp118
(dp119
g64
I01
sg65
Nsg66
(lp120
S'opaque'
p121
aS'opaque'
p122
aS'opaque'
p123
aS'opaque'
p124
aS'opaque'
p125
aS'opaque'
p126
aS'opaque'
p127
aS'opaque'
p128
aS'opaque'
p129
aS'opaque'
p130
aS'opaque'
p131
aS'opaque'
p132
aS'opaque'
p133
aS'opaque'
p134
aS'opaque'
p135
aS'opaque'
p136
aS'opaque'
p137
aS'opaque'
p138
aS'opaque'
p139
aS'opaque'
p140
asg56
g68
sbasg16
(lp141
g1
(g61
g3
NtRp142
(dp143
g64
I01
sg65
Nsg66
(lp144
S'unknown'
p145
aS'unknown'
p146
aS'unknown'
p147
aS'unknown'
p148
aS'unknown'
p149
aS'unknown'
p150
aS'unknown'
p151
aS'unknown'
p152
aS'unknown'
p153
aS'unknown'
p154
aS'unknown'
p155
aS'unknown'
p156
aS'unknown'
p157
aS'unknown'
p158
aS'unknown'
p159
aS'unknown'
p160
aS'unknown'
p161
aS'unknown'
p162
aS'unknown'
p163
aS'unknown'
p164
asg56
g68
sbasg18
(lp165
g1
(g61
g3
NtRp166
(dp167
g64
I01
sg65
Nsg66
(lp168
F-69.48060307728187
aF-69.48060307728187
aF-93.590243067891009
aF-93.590243067891009
aF-93.590243067891009
aF-89.061620332366473
aF-48.764286257858075
aF-160.4611769882689
aF-186.71693844936851
aF-154.1482959779172
aF-122.52678316023264
aF-154.70640927233796
aF-40.581032775408289
aF-40.581032775408289
aF-48.034619810823983
aF-48.034619810823983
aF-141.85478073434967
aF-67.807353525953999
aF-67.807353525953999
aF-63.88179185504157
asg56
g68
sbasg20
(lp169
g1
(g61
g3
NtRp170
(dp171
g64
I01
sg65
Nsg66
(lp172
I21
aI8
aI8
aI8
aI8
aI8
aI8
aI8
aI8
aI8
aI8
aI8
aI8
aI8
aI8
aI8
aI8
aI8
aI8
aI8
asg56
g68
sbasg22
(lp173
g1
(g61
g3
NtRp174
(dp175
g64
I01
sg65
Nsg66
(lp176
S'unknown'
p177
aS'unknown'
p178
aS'unknown'
p179
aS'unknown'
p180
aS'unknown'
p181
aS'unknown'
p182
aS'unknown'
p183
aS'unknown'
p184
aS'unknown'
p185
aS'unknown'
p186
aS'unknown'
p187
aS'unknown'
p188
aS'unknown'
p189
aS'unknown'
p190
aS'unknown'
p191
aS'unknown'
p192
aS'unknown'
p193
aS'unknown'
p194
aS'unknown'
p195
aS'unknown'
p196
asg56
g68
sbasg24
(lp197
g1
(g61
g3
NtRp198
(dp199
g64
I01
sg65
Nsg66
(lp200
F1488.7030580043793
aF1278.4867980480194
aF1511.4542000293732
aF600.11670112609863
aF533.29759287834167
aF185.16683888435364
aF87.874845027923584
aF94.061497926712036
aF91.69505786895752
aF81.893080949783325
aF93.4618079662323
aF89.691611051559448
aF94.551656007766724
aF66.079410076141357
aF46.826549053192139
aF53.270421028137207
aF67.79074501991272
aF76.478909969329834
aF68.143641948699951
aF113.51959800720215
asg56
g68
sbasg25
(lp201
g1
(g61
g3
NtRp202
(dp203
g64
I01
sg65
Nsg66
(lp204
F-7838.0084351083788
aF-5813.9429261392506
aF-3767.8287346755678
aF-2334.5930388296547
aF-730.11618951839046
aF-218.57787478566752
aF-259.98996883691871
aF-259.98996883691871
aF-221.19067808697582
aF-209.89996279441402
aF-209.89996279441402
aF-209.89996279441402
aF-219.34485325208516
aF-208.33098531598807
aF-203.71618185998523
aF-171.78684439198696
aF-171.78684439198696
aF-171.78684439198696
aF-171.78684439198696
aF-168.50600004769512
asg56
g68
sbasg27
(lp205
g1
(g61
g3
NtRp206
(dp207
g64
I01
sg65
Nsg66
(lp208
F112.48407432005236
aF-94.97171393817797
aF-59.107306179018174
aF-89.69670540758915
aF-89.69670540758915
aF1.7457416363661773
aF1.7457416363661773
aF20.21165792747826
aF20.21165792747826
aF-34.442323965612275
aF-34.442323965612275
aF-97.792064936259237
aF-48.252352346792293
aF-75.22558772623114
aF-6.5287882922081604
aF-2.0788247172119445
aF-10.364719570973364
aF-10.364719570973364
aF-22.376915925075711
aF-84.135026509301213
asg56
g68
sbasg29
(lp209
g1
(g61
g3
NtRp210
(dp211
g64
I01
sg65
Nsg66
(lp212
F-63.417949794082453
aF-63.417949794082453
aF-63.417949794082453
aF59.033569172035413
aF-74.46259206591877
aF-74.46259206591877
aF-27.988172855579801
aF-27.988172855579801
aF20.034835570605892
aF20.034835570605892
aF-28.954746678357523
aF14.763090564517725
aF-79.388074720630001
aF-56.929163072144178
aF-56.929163072144178
aF-58.764323745041651
aF-58.764323745041651
aF12.666285559649083
aF-13.750854915592384
aF-13.750854915592384
asg56
g68
sbasg31
(lp213
g1
(g61
g3
NtRp214
(dp215
g64
I01
sg65
Nsg66
(lp216
S'unknown'
p217
aS'unknown'
p218
aS'unknown'
p219
aS'unknown'
p220
aS'unknown'
p221
aS'unknown'
p222
aS'unknown'
p223
aS'unknown'
p224
aS'unknown'
p225
aS'unknown'
p226
aS'unknown'
p227
aS'unknown'
p228
aS'unknown'
p229
aS'unknown'
p230
aS'unknown'
p231
aS'unknown'
p232
aS'unknown'
p233
aS'unknown'
p234
aS'unknown'
p235
aS'unknown'
p236
asg56
g68
sbasg33
(lp237
g1
(g61
g3
NtRp238
(dp239
g64
I01
sg65
Nsg66
(lp240
(lp241
F0
aF1
aF2
aF3
aF4
aF5
aF6
aF7
aF8
aF9
aF10
aF11
aF12
aF13
aF14
aF15
aa(lp242
F0
aF1
aF2
aF3
aF4
aF5
aF6
aF7
aF8
aF9
aF10
aF11
aF12
aF13
aF14
aF15
aa(lp243
F0
aF1
aF2
aF3
aF4
aF5
aF6
aF7
aF8
aF9
aF10
aF11
aF12
aF13
aF14
aF15
aa(lp244
F0
aF1
aF2
aF3
aF4
aF5
aF6
aF7
aF8
aF9
aF10
aF11
aF12
aF13
aF14
aF15
aa(lp245
F0
aF1
aF2
aF3
aF4
aF5
aF6
aF7
aF8
aF9
aF10
aF11
aF12
aF13
aF14
aF15
aa(lp246
F0
aF1
aF2
aF3
aF4
aF5
aF6
aF7
aF8
aF9
aF10
aF11
aF12
aF13
aF14
aF15
aa(lp247
F0
aF1
aF2
aF3
aF4
aF5
aF6
aF7
aF8
aF9
aF10
aF11
aF12
aF13
aF14
aF15
aa(lp248
F0
aF1
aF2
aF3
aF4
aF5
aF6
aF7
aF8
aF9
aF10
aF11
aF12
aF13
aF14
aF15
aa(lp249
F0
aF1
aF2
aF3
aF4
aF5
aF6
aF7
aF8
aF9
aF10
aF11
aF12
aF13
aF14
aF15
aa(lp250
F0
aF1
aF2
aF3
aF4
aF5
aF6
aF7
aF8
aF9
aF10
aF11
aF12
aF13
aF14
aF15
aa(lp251
F0
aF1
aF2
aF3
aF4
aF5
aF6
aF7
aF8
aF9
aF10
aF11
aF12
aF13
aF14
aF15
aa(lp252
F0
aF1
aF2
aF3
aF4
aF5
aF6
aF7
aF8
aF9
aF10
aF11
aF12
aF13
aF14
aF15
aa(lp253
F0
aF1
aF2
aF3
aF4
aF5
aF6
aF7
aF8
aF9
aF10
aF11
aF12
aF13
aF14
aF15
aa(lp254
F0
aF1
aF2
aF3
aF4
aF5
aF6
aF7
aF8
aF9
aF10
aF11
aF12
aF13
aF14
aF15
aa(lp255
F0
aF1
aF2
aF3
aF4
aF5
aF6
aF7
aF8
aF9
aF10
aF11
aF12
aF13
aF14
aF15
aa(lp256
F0
aF1
aF2
aF3
aF4
aF5
aF6
aF7
aF8
aF9
aF10
aF11
aF12
aF13
aF14
aF15
aa(lp257
F0
aF1
aF2
aF3
aF4
aF5
aF6
aF7
aF8
aF9
aF10
aF11
aF12
aF13
aF14
aF15
aa(lp258
F0
aF1
aF2
aF3
aF4
aF5
aF6
aF7
aF8
aF9
aF10
aF11
aF12
aF13
aF14
aF15
aa(lp259
F0
aF1
aF2
aF3
aF4
aF5
aF6
aF7
aF8
aF9
aF10
aF11
aF12
aF13
aF14
aF15
aa(lp260
F0
aF1
aF2
aF3
aF4
aF5
aF6
aF7
aF8
aF9
aF10
aF11
aF12
aF13
aF14
aF15
aasg56
g68
sbasg35
(lp261
g1
(g61
g3
NtRp262
(dp263
g64
I01
sg65
Nsg66
(lp264
S'unknown'
p265
aS'unknown'
p266
aS'unknown'
p267
aS'unknown'
p268
aS'unknown'
p269
aS'unknown'
p270
aS'unknown'
p271
aS'unknown'
p272
aS'unknown'
p273
aS'unknown'
p274
aS'unknown'
p275
aS'unknown'
p276
aS'unknown'
p277
aS'unknown'
p278
aS'unknown'
p279
aS'unknown'
p280
aS'unknown'
p281
aS'unknown'
p282
aS'unknown'
p283
aS'unknown'
p284
asg56
g68
sbassS'data'
p285
(lp286
(S'(get_bird_pos 14 2)'
I0
tp287
a(S'(get_bird_pos 14 4)'
I5
tp288
a(S'(get_bird_pos 14 5)'
I5
tp289
a(S'(get_bird_pos 14 6)'
I15
tp290
a(S'(get_bird_pos 14 7)'
I15
tp291
a(S'(get_bird_pos 14 8)'
I15
tp292
a(S'(get_bird_pos 14 9)'
I15
tp293
a(S'(get_bird_pos 14 10)'
I15
tp294
a(S'(get_bird_pos 14 13)'
I15
tp295
a(S'(get_bird_pos 14 14)'
I15
tp296
a(S'(get_bird_pos 14 15)'
I15
tp297
a(S'(get_bird_pos 14 16)'
I15
tp298
a(S'(get_bird_pos 14 17)'
I15
tp299
asb.