ccopy_reg
_reconstructor
p1
(cventure.unit.history
History
p2
c__builtin__
object
p3
NtRp4
(dp5
S'nameToType'
p6
(dp7
S'logscore'
p8
S'number'
p9
sS'phi'
p10
S'sp'
p11
sS'scale'
p12
S'number'
p13
sS'features'
p14
S'dict'
p15
sS'move'
p16
S'sp'
p17
sS'hypers3'
p18
S'number'
p19
sS'sweep_iters'
p20
S'count'
p21
sS'observe_birds'
p22
S'sp'
p23
sS'sweep time (s)'
p24
g21
sS'count_birds'
p25
S'sp'
p26
sS'hypers0'
p27
S'number'
p28
sS'hypers1'
p29
S'number'
p30
sS'hypers2'
p31
S'number'
p32
sS'get_bird_move_dist'
p33
S'sp'
p34
sS'cell_array'
p35
S'array'
p36
sS'get_bird_pos'
p37
S'sp'
p38
ssS'parameters'
p39
(dp40
S'venture_random_seed'
p41
I0
sS'cells'
p42
I16
sS'days'
p43
(lp44
I0
aI1
aI2
aI3
aI4
aI5
aI6
aI7
aI8
aI9
aI10
aI11
aI12
aI13
aI14
aI15
aI16
aI17
aI18
aI19
asS'name'
p45
S'onebird'
p46
sS'years'
p47
(lp48
I13
assS'hypers'
p49
(lp50
cnumpy.core.multiarray
scalar
p51
(cnumpy
dtype
p52
(S'f8'
I0
I1
tRp53
(I3
S'<'
NNNI-1
I-1
I0
tbS'o\x1c-1I\xf0\x0c\xc0'
tRp54
ag51
(g53
S'Q\xea\x12{\xfb\xc2\x14@'
tRp55
ag51
(g53
S'\x8bp/\x03\x14\x19\x0f@'
tRp56
ag51
(g53
S'\xcb_#x\x9a\xfb\x06@'
tRp57
asS'label'
p58
S'run_from_conditional'
p59
sS'nameToSeries'
p60
(dp61
g8
(lp62
g1
(cventure.unit.history
Series
p63
g3
NtRp64
(dp65
S'hist'
p66
I01
sS'_xvals'
p67
NsS'values'
p68
(lp69
F-508.56467543622875
aF-73.046415905595651
aF-57.640770235027247
aF-40.789553554518285
aF-33.176976724429807
aF-21.250730112788052
aF-20.803134785959191
aF-20.803134785959191
aF-20.621930343297077
aF-19.673841198593973
aF-19.684149357757821
aF-19.684149357757821
aF-19.684149357757821
aF-19.684149357757821
aF-19.684149357757821
aF-19.684149357757821
aF-20.629455295822527
aF-19.688841536151553
aF-20.284011761713867
aF-20.338776811437114
asg58
S'run 0'
p70
sbasg10
(lp71
g1
(g63
g3
NtRp72
(dp73
g66
I01
sg67
Nsg68
(lp74
S'unknown'
p75
aS'unknown'
p76
aS'unknown'
p77
aS'unknown'
p78
aS'unknown'
p79
aS'unknown'
p80
aS'unknown'
p81
aS'unknown'
p82
aS'unknown'
p83
aS'unknown'
p84
aS'unknown'
p85
aS'unknown'
p86
aS'unknown'
p87
aS'unknown'
p88
aS'unknown'
p89
aS'unknown'
p90
aS'unknown'
p91
aS'unknown'
p92
aS'unknown'
p93
aS'unknown'
p94
asg58
g70
sbasg12
(lp95
g1
(g63
g3
NtRp96
(dp97
g66
I01
sg67
Nsg68
(lp98
F2.4528500292535287
aF1.0223776955225419
aF1.0223776955225419
aF1.0223776955225419
aF1.0223776955225419
aF1.0514997676223639
aF3.1770784101532046
aF3.1770784101532046
aF1.777057281661194
aF1.777057281661194
aF1.9164936887189248
aF1.9164936887189248
aF1.9164936887189248
aF1.9164936887189248
aF1.9164936887189248
aF1.9164936887189248
aF1.8470693479373221
aF1.9355751591477217
aF1.2685444970812851
aF1.2474066032715165
asg58
g70
sbasg14
(lp99
g1
(g63
g3
NtRp100
(dp101
g66
I01
sg67
Nsg68
(lp102
S'opaque'
p103
aS'opaque'
p104
aS'opaque'
p105
aS'opaque'
p106
aS'opaque'
p107
aS'opaque'
p108
aS'opaque'
p109
aS'opaque'
p110
aS'opaque'
p111
aS'opaque'
p112
aS'opaque'
p113
aS'opaque'
p114
aS'opaque'
p115
aS'opaque'
p116
aS'opaque'
p117
aS'opaque'
p118
aS'opaque'
p119
aS'opaque'
p120
aS'opaque'
p121
aS'opaque'
p122
asg58
g70
sbasg16
(lp123
g1
(g63
g3
NtRp124
(dp125
g66
I01
sg67
Nsg68
(lp126
S'unknown'
p127
aS'unknown'
p128
aS'unknown'
p129
aS'unknown'
p130
aS'unknown'
p131
aS'unknown'
p132
aS'unknown'
p133
aS'unknown'
p134
aS'unknown'
p135
aS'unknown'
p136
aS'unknown'
p137
aS'unknown'
p138
aS'unknown'
p139
aS'unknown'
p140
aS'unknown'
p141
aS'unknown'
p142
aS'unknown'
p143
aS'unknown'
p144
aS'unknown'
p145
aS'unknown'
p146
asg58
g70
sbasg18
(lp147
g1
(g63
g3
NtRp148
(dp149
g66
I01
sg67
Nsg68
(lp150
F17.129452257591694
aF2.1072424461607695
aF2.1072424461607695
aF2.1072424461607695
aF2.1072424461607695
aF2.4216678714759268
aF7.3170046707903769
aF7.3170046707903769
aF4.0926709232681455
aF4.0926709232681455
aF4.4138014432009056
aF4.4138014432009056
aF4.4138014432009056
aF4.4138014432009056
aF4.4138014432009056
aF4.4138014432009056
aF4.253912967001467
aF4.457747229306424
aF2.9215350746730864
aF2.8728532205386492
asg58
g70
sbasg20
(lp151
g1
(g63
g3
NtRp152
(dp153
g66
I01
sg67
Nsg68
(lp154
I24
aI8
aI8
aI8
aI8
aI8
aI8
aI8
aI8
aI8
aI8
aI8
aI8
aI8
aI8
aI8
aI8
aI8
aI8
aI8
asg58
g70
sbasg22
(lp155
g1
(g63
g3
NtRp156
(dp157
g66
I01
sg67
Nsg68
(lp158
S'unknown'
p159
aS'unknown'
p160
aS'unknown'
p161
aS'unknown'
p162
aS'unknown'
p163
aS'unknown'
p164
aS'unknown'
p165
aS'unknown'
p166
aS'unknown'
p167
aS'unknown'
p168
aS'unknown'
p169
aS'unknown'
p170
aS'unknown'
p171
aS'unknown'
p172
aS'unknown'
p173
aS'unknown'
p174
aS'unknown'
p175
aS'unknown'
p176
aS'unknown'
p177
aS'unknown'
p178
asg58
g70
sbasg24
(lp179
g1
(g63
g3
NtRp180
(dp181
g66
I01
sg67
Nsg68
(lp182
F12.64344596862793
aF8.670759916305542
aF11.338518857955933
aF9.9868590831756592
aF8.1773121356964111
aF7.867732048034668
aF8.9243497848510742
aF9.9353420734405518
aF8.1640410423278809
aF8.1660351753234863
aF9.2087318897247314
aF10.366625785827637
aF10.429995059967041
aF10.608467102050781
aF10.311308860778809
aF10.620337009429932
aF9.6790740489959717
aF10.474632024765015
aF8.6062259674072266
aF8.9782650470733643
asg58
g70
sbasg25
(lp183
g1
(g63
g3
NtRp184
(dp185
g66
I01
sg67
Nsg68
(lp186
S'unknown'
p187
aS'unknown'
p188
aS'unknown'
p189
aS'unknown'
p190
aS'unknown'
p191
aS'unknown'
p192
aS'unknown'
p193
aS'unknown'
p194
aS'unknown'
p195
aS'unknown'
p196
aS'unknown'
p197
aS'unknown'
p198
aS'unknown'
p199
aS'unknown'
p200
aS'unknown'
p201
aS'unknown'
p202
aS'unknown'
p203
aS'unknown'
p204
aS'unknown'
p205
aS'unknown'
p206
asg58
g70
sbasg27
(lp207
g1
(g63
g3
NtRp208
(dp209
g66
I01
sg67
Nsg68
(lp210
F-22.901232982534889
aF-9.54551216832213
aF-9.54551216832213
aF-6.2891296307911748
aF-2.9647706991890854
aF-3.0492211585832485
aF-9.2131401347074711
aF-9.2131401347074711
aF-5.1532495109421621
aF-5.1532495109421621
aF-5.5575980954774238
aF-5.5575980954774238
aF-5.5575980954774238
aF-5.5575980954774238
aF-5.5575980954774238
aF-5.5575980954774238
aF-5.3562759693578643
aF-5.6129320338766044
aF-3.6786244183876815
aF-3.6173271028415495
asg58
g70
sbasg29
(lp211
g1
(g63
g3
NtRp212
(dp213
g66
I01
sg67
Nsg68
(lp214
F-1.227715570211334
aF-0.51172676700980224
aF-0.51172676700980224
aF4.6402899458996814
aF4.6402899458996814
aF4.7724669866942788
aF14.419881290968371
aF14.419881290968371
aF8.06557212025802
aF8.06557212025802
aF8.698435455007969
aF8.698435455007969
aF8.698435455007969
aF8.698435455007969
aF8.698435455007969
aF8.698435455007969
aF8.383337549468342
aF8.7850409783595644
aF5.2783664373512567
aF5.190412447957514
asg58
g70
sbasg31
(lp215
g1
(g63
g3
NtRp216
(dp217
g66
I01
sg67
Nsg68
(lp218
F-61.914724844414152
aF-1.9826287323401226
aF-1.9826287323401226
aF-1.9826287323401226
aF-1.7308442505307058
aF3.2767482678278053
aF9.9006072067544739
aF9.9006072067544739
aF5.5377752319250817
aF5.5377752319250817
aF5.9722955422164317
aF5.9722955422164317
aF5.9722955422164317
aF5.9722955422164317
aF5.9722955422164317
aF5.9722955422164317
aF5.7559511402432468
aF6.031758394325804
aF3.9531164071226264
aF3.8872452019550727
asg58
g70
sbasg33
(lp219
g1
(g63
g3
NtRp220
(dp221
g66
I01
sg67
Nsg68
(lp222
S'unknown'
p223
aS'unknown'
p224
aS'unknown'
p225
aS'unknown'
p226
aS'unknown'
p227
aS'unknown'
p228
aS'unknown'
p229
aS'unknown'
p230
aS'unknown'
p231
aS'unknown'
p232
aS'unknown'
p233
aS'unknown'
p234
aS'unknown'
p235
aS'unknown'
p236
aS'unknown'
p237
aS'unknown'
p238
aS'unknown'
p239
aS'unknown'
p240
aS'unknown'
p241
aS'unknown'
p242
asg58
g70
sbasg35
(lp243
g1
(g63
g3
NtRp244
(dp245
g66
I01
sg67
Nsg68
(lp246
(lp247
F0
aF1
aF2
aF3
aF4
aF5
aF6
aF7
aF8
aF9
aF10
aF11
aF12
aF13
aF14
aF15
aa(lp248
F0
aF1
aF2
aF3
aF4
aF5
aF6
aF7
aF8
aF9
aF10
aF11
aF12
aF13
aF14
aF15
aa(lp249
F0
aF1
aF2
aF3
aF4
aF5
aF6
aF7
aF8
aF9
aF10
aF11
aF12
aF13
aF14
aF15
aa(lp250
F0
aF1
aF2
aF3
aF4
aF5
aF6
aF7
aF8
aF9
aF10
aF11
aF12
aF13
aF14
aF15
aa(lp251
F0
aF1
aF2
aF3
aF4
aF5
aF6
aF7
aF8
aF9
aF10
aF11
aF12
aF13
aF14
aF15
aa(lp252
F0
aF1
aF2
aF3
aF4
aF5
aF6
aF7
aF8
aF9
aF10
aF11
aF12
aF13
aF14
aF15
aa(lp253
F0
aF1
aF2
aF3
aF4
aF5
aF6
aF7
aF8
aF9
aF10
aF11
aF12
aF13
aF14
aF15
aa(lp254
F0
aF1
aF2
aF3
aF4
aF5
aF6
aF7
aF8
aF9
aF10
aF11
aF12
aF13
aF14
aF15
aa(lp255
F0
aF1
aF2
aF3
aF4
aF5
aF6
aF7
aF8
aF9
aF10
aF11
aF12
aF13
aF14
aF15
aa(lp256
F0
aF1
aF2
aF3
aF4
aF5
aF6
aF7
aF8
aF9
aF10
aF11
aF12
aF13
aF14
aF15
aa(lp257
F0
aF1
aF2
aF3
aF4
aF5
aF6
aF7
aF8
aF9
aF10
aF11
aF12
aF13
aF14
aF15
aa(lp258
F0
aF1
aF2
aF3
aF4
aF5
aF6
aF7
aF8
aF9
aF10
aF11
aF12
aF13
aF14
aF15
aa(lp259
F0
aF1
aF2
aF3
aF4
aF5
aF6
aF7
aF8
aF9
aF10
aF11
aF12
aF13
aF14
aF15
aa(lp260
F0
aF1
aF2
aF3
aF4
aF5
aF6
aF7
aF8
aF9
aF10
aF11
aF12
aF13
aF14
aF15
aa(lp261
F0
aF1
aF2
aF3
aF4
aF5
aF6
aF7
aF8
aF9
aF10
aF11
aF12
aF13
aF14
aF15
aa(lp262
F0
aF1
aF2
aF3
aF4
aF5
aF6
aF7
aF8
aF9
aF10
aF11
aF12
aF13
aF14
aF15
aa(lp263
F0
aF1
aF2
aF3
aF4
aF5
aF6
aF7
aF8
aF9
aF10
aF11
aF12
aF13
aF14
aF15
aa(lp264
F0
aF1
aF2
aF3
aF4
aF5
aF6
aF7
aF8
aF9
aF10
aF11
aF12
aF13
aF14
aF15
aa(lp265
F0
aF1
aF2
aF3
aF4
aF5
aF6
aF7
aF8
aF9
aF10
aF11
aF12
aF13
aF14
aF15
aa(lp266
F0
aF1
aF2
aF3
aF4
aF5
aF6
aF7
aF8
aF9
aF10
aF11
aF12
aF13
aF14
aF15
aasg58
g70
sbasg37
(lp267
g1
(g63
g3
NtRp268
(dp269
g66
I01
sg67
Nsg68
(lp270
S'unknown'
p271
aS'unknown'
p272
aS'unknown'
p273
aS'unknown'
p274
aS'unknown'
p275
aS'unknown'
p276
aS'unknown'
p277
aS'unknown'
p278
aS'unknown'
p279
aS'unknown'
p280
aS'unknown'
p281
aS'unknown'
p282
aS'unknown'
p283
aS'unknown'
p284
aS'unknown'
p285
aS'unknown'
p286
aS'unknown'
p287
aS'unknown'
p288
aS'unknown'
p289
aS'unknown'
p290
asg58
g70
sbassS'data'
p291
(lp292
(S'(get_bird_pos 13 1)'
I0
tp293
a(S'(get_bird_pos 13 2)'
I7
tp294
a(S'(get_bird_pos 13 3)'
I7
tp295
a(S'(get_bird_pos 13 5)'
I7
tp296
a(S'(get_bird_pos 13 6)'
I7
tp297
a(S'(get_bird_pos 13 7)'
I7
tp298
a(S'(get_bird_pos 13 8)'
I11
tp299
a(S'(get_bird_pos 13 9)'
I11
tp300
a(S'(get_bird_pos 13 11)'
I15
tp301
a(S'(get_bird_pos 13 13)'
I15
tp302
a(S'(get_bird_pos 13 14)'
I15
tp303
a(S'(get_bird_pos 13 15)'
I15
tp304
a(S'(get_bird_pos 13 16)'
I15
tp305
a(S'(get_bird_pos 13 17)'
I15
tp306
a(S'(get_bird_pos 13 18)'
I15
tp307
a(S'(get_bird_pos 13 19)'
I15
tp308
asb.