ccopy_reg
_reconstructor
p1
(cventure.unit.history
History
p2
c__builtin__
object
p3
NtRp4
(dp5
S'nameToType'
p6
(dp7
S'logscore'
p8
S'number'
p9
sS'phi'
p10
S'sp'
p11
sS'scale'
p12
S'number'
p13
sS'features'
p14
S'dict'
p15
sS'move'
p16
S'sp'
p17
sS'hypers3'
p18
S'number'
p19
sS'sweep_iters'
p20
S'count'
p21
sS'observe_birds'
p22
S'sp'
p23
sS'sweep time (s)'
p24
g21
sS'count_birds'
p25
S'sp'
p26
sS'hypers0'
p27
S'number'
p28
sS'hypers1'
p29
S'number'
p30
sS'hypers2'
p31
S'number'
p32
sS'get_bird_move_dist'
p33
S'sp'
p34
sS'cell_array'
p35
S'array'
p36
sS'get_bird_pos'
p37
S'sp'
p38
ssS'parameters'
p39
(dp40
S'venture_random_seed'
p41
I0
sS'cells'
p42
I16
sS'days'
p43
(lp44
I0
aI1
aI2
aI3
aI4
aI5
aI6
aI7
aI8
aI9
aI10
aI11
aI12
aI13
aI14
aI15
aI16
aI17
aI18
aI19
asS'name'
p45
S'onebird'
p46
sS'years'
p47
(lp48
I7
assS'hypers'
p49
(lp50
cnumpy.core.multiarray
scalar
p51
(cnumpy
dtype
p52
(S'f8'
I0
I1
tRp53
(I3
S'<'
NNNI-1
I-1
I0
tbS'sD\r\x11\xc6\xda\xe3\xbf'
tRp54
ag51
(g53
S'\xb1\xc5\t\xc8\xdd\xe0\xe0?'
tRp55
ag51
(g53
S'\xac\xad\x19.\x94K\xcd\xbf'
tRp56
ag51
(g53
S'\xc7Q\xb8kp\x8c\xe1?'
tRp57
asS'label'
p58
S'run_from_conditional'
p59
sS'nameToSeries'
p60
(dp61
g8
(lp62
g1
(cventure.unit.history
Series
p63
g3
NtRp64
(dp65
S'hist'
p66
I01
sS'_xvals'
p67
NsS'values'
p68
(lp69
F-100.21767120689296
aF-75.724909384566701
aF-60.209105303471205
aF-61.851569294270128
aF-66.500779788547419
aF-62.794555915897384
aF-60.408744400456484
aF-59.288298797960664
aF-59.60375193664126
aF-53.3713957095529
aF-50.579452286354176
aF-51.439629116486998
aF-51.459412526078978
aF-49.296339579781865
aF-51.311273861587814
aF-49.635133989636081
aF-57.368700999156992
aF-50.240594083925018
aF-54.894641283109635
aF-54.477765475309639
asg58
S'run 0'
p70
sbasg10
(lp71
g1
(g63
g3
NtRp72
(dp73
g66
I01
sg67
Nsg68
(lp74
S'unknown'
p75
aS'unknown'
p76
aS'unknown'
p77
aS'unknown'
p78
aS'unknown'
p79
aS'unknown'
p80
aS'unknown'
p81
aS'unknown'
p82
aS'unknown'
p83
aS'unknown'
p84
aS'unknown'
p85
aS'unknown'
p86
aS'unknown'
p87
aS'unknown'
p88
aS'unknown'
p89
aS'unknown'
p90
aS'unknown'
p91
aS'unknown'
p92
aS'unknown'
p93
aS'unknown'
p94
asg58
g70
sbasg12
(lp95
g1
(g63
g3
NtRp96
(dp97
g66
I01
sg67
Nsg68
(lp98
F0.19576536406075901
aF0.19576536406075901
aF0.020006777996876373
aF0.020006777996876373
aF0.020006777996876373
aF0.030180961167197748
aF0.030180961167197748
aF0.030180961167197748
aF0.030180961167197748
aF0.030180961167197748
aF0.030180961167197748
aF0.030180961167197748
aF0.030180961167197748
aF0.030180961167197748
aF0.030180961167197748
aF0.030180961167197748
aF0.030180961167197748
aF0.030180961167197748
aF0.030180961167197748
aF0.030180961167197748
asg58
g70
sbasg14
(lp99
g1
(g63
g3
NtRp100
(dp101
g66
I01
sg67
Nsg68
(lp102
S'opaque'
p103
aS'opaque'
p104
aS'opaque'
p105
aS'opaque'
p106
aS'opaque'
p107
aS'opaque'
p108
aS'opaque'
p109
aS'opaque'
p110
aS'opaque'
p111
aS'opaque'
p112
aS'opaque'
p113
aS'opaque'
p114
aS'opaque'
p115
aS'opaque'
p116
aS'opaque'
p117
aS'opaque'
p118
aS'opaque'
p119
aS'opaque'
p120
aS'opaque'
p121
aS'opaque'
p122
asg58
g70
sbasg16
(lp123
g1
(g63
g3
NtRp124
(dp125
g66
I01
sg67
Nsg68
(lp126
S'unknown'
p127
aS'unknown'
p128
aS'unknown'
p129
aS'unknown'
p130
aS'unknown'
p131
aS'unknown'
p132
aS'unknown'
p133
aS'unknown'
p134
aS'unknown'
p135
aS'unknown'
p136
aS'unknown'
p137
aS'unknown'
p138
aS'unknown'
p139
aS'unknown'
p140
aS'unknown'
p141
aS'unknown'
p142
aS'unknown'
p143
aS'unknown'
p144
aS'unknown'
p145
aS'unknown'
p146
asg58
g70
sbasg18
(lp147
g1
(g63
g3
NtRp148
(dp149
g66
I01
sg67
Nsg68
(lp150
F-1.9637898398573972
aF-1.0735198051567965
aF0.1948910710431726
aF0.1948910710431726
aF0.1948910710431726
aF0.29400035567475769
aF0.30814492880394151
aF0.30814492880394151
aF0.30814492880394151
aF0.54839345015585017
aF0.54839345015585017
aF0.54839345015585017
aF0.54839345015585017
aF0.54839345015585017
aF0.54839345015585017
aF0.54839345015585017
aF0.54839345015585017
aF0.54839345015585017
aF0.54839345015585017
aF0.54839345015585017
asg58
g70
sbasg20
(lp151
g1
(g63
g3
NtRp152
(dp153
g66
I01
sg67
Nsg68
(lp154
I24
aI8
aI8
aI8
aI8
aI8
aI8
aI8
aI8
aI8
aI8
aI8
aI8
aI8
aI8
aI8
aI8
aI8
aI8
aI8
asg58
g70
sbasg22
(lp155
g1
(g63
g3
NtRp156
(dp157
g66
I01
sg67
Nsg68
(lp158
S'unknown'
p159
aS'unknown'
p160
aS'unknown'
p161
aS'unknown'
p162
aS'unknown'
p163
aS'unknown'
p164
aS'unknown'
p165
aS'unknown'
p166
aS'unknown'
p167
aS'unknown'
p168
aS'unknown'
p169
aS'unknown'
p170
aS'unknown'
p171
aS'unknown'
p172
aS'unknown'
p173
aS'unknown'
p174
aS'unknown'
p175
aS'unknown'
p176
aS'unknown'
p177
aS'unknown'
p178
asg58
g70
sbasg24
(lp179
g1
(g63
g3
NtRp180
(dp181
g66
I01
sg67
Nsg68
(lp182
F12.447261095046997
aF9.262861967086792
aF9.4422609806060791
aF10.998204946517944
aF9.1620340347290039
aF10.067635059356689
aF8.2074007987976074
aF10.001836776733398
aF8.1711971759796143
aF7.8511929512023926
aF8.2880969047546387
aF7.621941089630127
aF9.2451670169830322
aF8.3579871654510498
aF9.8525569438934326
aF10.945971965789795
aF10.142267942428589
aF8.6291389465332031
aF9.9508378505706787
aF8.8070440292358398
asg58
g70
sbasg25
(lp183
g1
(g63
g3
NtRp184
(dp185
g66
I01
sg67
Nsg68
(lp186
S'unknown'
p187
aS'unknown'
p188
aS'unknown'
p189
aS'unknown'
p190
aS'unknown'
p191
aS'unknown'
p192
aS'unknown'
p193
aS'unknown'
p194
aS'unknown'
p195
aS'unknown'
p196
aS'unknown'
p197
aS'unknown'
p198
aS'unknown'
p199
aS'unknown'
p200
aS'unknown'
p201
aS'unknown'
p202
aS'unknown'
p203
aS'unknown'
p204
aS'unknown'
p205
aS'unknown'
p206
asg58
g70
sbasg27
(lp207
g1
(g63
g3
NtRp208
(dp209
g66
I01
sg67
Nsg68
(lp210
F-1.0285012040460682
aF-1.6715621259638309
aF-0.23070555652709984
aF-0.23070555652709984
aF-0.23070555652709984
aF-0.34802782555433237
aF-0.34802782555433237
aF-0.34802782555433237
aF-0.7599194507713255
aF-0.7599194507713255
aF-0.7599194507713255
aF-0.7599194507713255
aF-0.7599194507713255
aF-0.62045577364382465
aF-0.62045577364382465
aF-0.62045577364382465
aF-0.62045577364382465
aF-0.62045577364382465
aF-0.62045577364382465
aF-0.62045577364382465
asg58
g70
sbasg29
(lp211
g1
(g63
g3
NtRp212
(dp213
g66
I01
sg67
Nsg68
(lp214
F-0.47414840006469661
aF-0.47414840006469661
aF-0.048456895443079066
aF-0.048456895443079066
aF0.38916680867981185
aF0.58707245825197207
aF0.58707245825197207
aF0.58707245825197207
aF0.58707245825197207
aF-0.069028133189648525
aF-0.1195775256427531
aF0.16138986849629053
aF-0.010364325726412743
aF-0.010364325726412743
aF-0.0078412228262383921
aF-0.0078412228262383921
aF0.54454632660682667
aF0.52744950361209508
aF0.52744950361209508
aF0.52744950361209508
asg58
g70
sbasg31
(lp215
g1
(g63
g3
NtRp216
(dp217
g66
I01
sg67
Nsg68
(lp218
F-0.2542214687698735
aF-0.2542214687698735
aF-0.025980859852921319
aF-0.15316165817299618
aF-0.38619603442606876
aF-0.58259093591975386
aF0.49406597847999334
aF0.072837978567636116
aF-0.041578944994071235
aF0.35340329512670743
aF0.35340329512670743
aF-0.44647686112280455
aF0.16637182922470375
aF0.1757498655571158
aF0.1757498655571158
aF0.1757498655571158
aF0.025916965663719847
aF0.36915349986971796
aF-0.080262722637103809
aF-0.22886898280135648
asg58
g70
sbasg33
(lp219
g1
(g63
g3
NtRp220
(dp221
g66
I01
sg67
Nsg68
(lp222
S'unknown'
p223
aS'unknown'
p224
aS'unknown'
p225
aS'unknown'
p226
aS'unknown'
p227
aS'unknown'
p228
aS'unknown'
p229
aS'unknown'
p230
aS'unknown'
p231
aS'unknown'
p232
aS'unknown'
p233
aS'unknown'
p234
aS'unknown'
p235
aS'unknown'
p236
aS'unknown'
p237
aS'unknown'
p238
aS'unknown'
p239
aS'unknown'
p240
aS'unknown'
p241
aS'unknown'
p242
asg58
g70
sbasg35
(lp243
g1
(g63
g3
NtRp244
(dp245
g66
I01
sg67
Nsg68
(lp246
(lp247
F0
aF1
aF2
aF3
aF4
aF5
aF6
aF7
aF8
aF9
aF10
aF11
aF12
aF13
aF14
aF15
aa(lp248
F0
aF1
aF2
aF3
aF4
aF5
aF6
aF7
aF8
aF9
aF10
aF11
aF12
aF13
aF14
aF15
aa(lp249
F0
aF1
aF2
aF3
aF4
aF5
aF6
aF7
aF8
aF9
aF10
aF11
aF12
aF13
aF14
aF15
aa(lp250
F0
aF1
aF2
aF3
aF4
aF5
aF6
aF7
aF8
aF9
aF10
aF11
aF12
aF13
aF14
aF15
aa(lp251
F0
aF1
aF2
aF3
aF4
aF5
aF6
aF7
aF8
aF9
aF10
aF11
aF12
aF13
aF14
aF15
aa(lp252
F0
aF1
aF2
aF3
aF4
aF5
aF6
aF7
aF8
aF9
aF10
aF11
aF12
aF13
aF14
aF15
aa(lp253
F0
aF1
aF2
aF3
aF4
aF5
aF6
aF7
aF8
aF9
aF10
aF11
aF12
aF13
aF14
aF15
aa(lp254
F0
aF1
aF2
aF3
aF4
aF5
aF6
aF7
aF8
aF9
aF10
aF11
aF12
aF13
aF14
aF15
aa(lp255
F0
aF1
aF2
aF3
aF4
aF5
aF6
aF7
aF8
aF9
aF10
aF11
aF12
aF13
aF14
aF15
aa(lp256
F0
aF1
aF2
aF3
aF4
aF5
aF6
aF7
aF8
aF9
aF10
aF11
aF12
aF13
aF14
aF15
aa(lp257
F0
aF1
aF2
aF3
aF4
aF5
aF6
aF7
aF8
aF9
aF10
aF11
aF12
aF13
aF14
aF15
aa(lp258
F0
aF1
aF2
aF3
aF4
aF5
aF6
aF7
aF8
aF9
aF10
aF11
aF12
aF13
aF14
aF15
aa(lp259
F0
aF1
aF2
aF3
aF4
aF5
aF6
aF7
aF8
aF9
aF10
aF11
aF12
aF13
aF14
aF15
aa(lp260
F0
aF1
aF2
aF3
aF4
aF5
aF6
aF7
aF8
aF9
aF10
aF11
aF12
aF13
aF14
aF15
aa(lp261
F0
aF1
aF2
aF3
aF4
aF5
aF6
aF7
aF8
aF9
aF10
aF11
aF12
aF13
aF14
aF15
aa(lp262
F0
aF1
aF2
aF3
aF4
aF5
aF6
aF7
aF8
aF9
aF10
aF11
aF12
aF13
aF14
aF15
aa(lp263
F0
aF1
aF2
aF3
aF4
aF5
aF6
aF7
aF8
aF9
aF10
aF11
aF12
aF13
aF14
aF15
aa(lp264
F0
aF1
aF2
aF3
aF4
aF5
aF6
aF7
aF8
aF9
aF10
aF11
aF12
aF13
aF14
aF15
aa(lp265
F0
aF1
aF2
aF3
aF4
aF5
aF6
aF7
aF8
aF9
aF10
aF11
aF12
aF13
aF14
aF15
aa(lp266
F0
aF1
aF2
aF3
aF4
aF5
aF6
aF7
aF8
aF9
aF10
aF11
aF12
aF13
aF14
aF15
aasg58
g70
sbasg37
(lp267
g1
(g63
g3
NtRp268
(dp269
g66
I01
sg67
Nsg68
(lp270
S'unknown'
p271
aS'unknown'
p272
aS'unknown'
p273
aS'unknown'
p274
aS'unknown'
p275
aS'unknown'
p276
aS'unknown'
p277
aS'unknown'
p278
aS'unknown'
p279
aS'unknown'
p280
aS'unknown'
p281
aS'unknown'
p282
aS'unknown'
p283
aS'unknown'
p284
aS'unknown'
p285
aS'unknown'
p286
aS'unknown'
p287
aS'unknown'
p288
aS'unknown'
p289
aS'unknown'
p290
asg58
g70
sbassS'data'
p291
(lp292
(S'(get_bird_pos 7 1)'
I9
tp293
a(S'(get_bird_pos 7 2)'
I9
tp294
a(S'(get_bird_pos 7 3)'
I9
tp295
a(S'(get_bird_pos 7 4)'
I9
tp296
a(S'(get_bird_pos 7 6)'
I9
tp297
a(S'(get_bird_pos 7 7)'
I9
tp298
a(S'(get_bird_pos 7 8)'
I9
tp299
a(S'(get_bird_pos 7 9)'
I9
tp300
a(S'(get_bird_pos 7 10)'
I9
tp301
a(S'(get_bird_pos 7 11)'
I9
tp302
a(S'(get_bird_pos 7 13)'
I9
tp303
a(S'(get_bird_pos 7 14)'
I9
tp304
a(S'(get_bird_pos 7 15)'
I9
tp305
a(S'(get_bird_pos 7 16)'
I9
tp306
a(S'(get_bird_pos 7 17)'
I14
tp307
a(S'(get_bird_pos 7 19)'
I11
tp308
asb.