ccopy_reg
_reconstructor
p1
(cventure.unit.history
History
p2
c__builtin__
object
p3
NtRp4
(dp5
S'nameToType'
p6
(dp7
S'logscore'
p8
S'number'
p9
sS'phi'
p10
S'sp'
p11
sS'count_birds'
p12
S'sp'
p13
sS'features'
p14
S'dict'
p15
sS'move'
p16
S'sp'
p17
sS'hypers3'
p18
S'number'
p19
sS'sweep_iters'
p20
S'count'
p21
sS'observe_birds'
p22
S'sp'
p23
sS'sweep time (s)'
p24
g21
sS'hypers0'
p25
S'number'
p26
sS'hypers1'
p27
S'number'
p28
sS'hypers2'
p29
S'number'
p30
sS'get_bird_move_dist'
p31
S'sp'
p32
sS'cell_array'
p33
S'array'
p34
sS'get_bird_pos'
p35
S'sp'
p36
ssS'parameters'
p37
(dp38
S'venture_random_seed'
p39
I0
sS'cells'
p40
I16
sS'days'
p41
(lp42
I0
aI1
aI2
aI3
aI4
aI5
aI6
aI7
aI8
aI9
aI10
aI11
aI12
aI13
aI14
aI15
aI16
aI17
aI18
aI19
asS'name'
p43
S'onebird'
p44
sS'years'
p45
(lp46
I16
assS'hypers'
p47
(lp48
cnumpy.core.multiarray
scalar
p49
(cnumpy
dtype
p50
(S'f8'
I0
I1
tRp51
(I3
S'<'
NNNI-1
I-1
I0
tbS"\x8f\x93'\xa8\x0e7\x01@"
tRp52
ag49
(g51
S'\x01\x15(\xf3\x1f\xd4#@'
tRp53
ag49
(g51
S'\x11\xaa\x152\xf9\x95\r@'
tRp54
ag49
(g51
S'\xcbZ\xee\xa9\xe8\xe9\x19@'
tRp55
asS'label'
p56
S'run_from_conditional'
p57
sS'nameToSeries'
p58
(dp59
g8
(lp60
g1
(cventure.unit.history
Series
p61
g3
NtRp62
(dp63
S'hist'
p64
I01
sS'_xvals'
p65
NsS'values'
p66
(lp67
F-18.02911931151603
aF-18.225146002223745
aF-17.651323976449603
aF-19.627800462388066
aF-17.765978848315662
aF-19.536810398821761
aF-17.899350109767759
aF-17.187783879002925
aF-19.156516761450558
aF-17.336133534055332
aF-17.390864811948468
aF-19.770614987330212
aF-19.578351627026475
aF-19.380786925527591
aF-17.826859992627192
aF-20.098008047601709
aF-18.854809923782899
aF-17.869142595667579
aF-17.798502482762018
aF-18.166767564050311
asg56
S'run 0'
p68
sbag1
(g61
g3
NtRp69
(dp70
g64
I01
sg65
Nsg66
(lp71
F-20.198206444003425
aF-23.143293731642995
aF-21.267186722111699
aF-20.569341139683722
aF-20.237632008868182
aF-19.346018454912659
aF-19.044994168312893
aF-19.003574495828527
aF-17.594312234767923
aF-17.468471546874436
aF-18.918393813757351
aF-17.438139735002562
aF-17.620260835884128
aF-18.39602121707761
aF-18.176204737254579
aF-17.269926601730429
aF-20.765928971332112
aF-18.991676090056096
aF-17.406114159544853
aF-17.321073407217924
asg56
S'run 1'
p72
sbag1
(g61
g3
NtRp73
(dp74
g64
I01
sg65
Nsg66
(lp75
F-22.410249321458945
aF-22.897982535330819
aF-21.433319229671429
aF-21.087822075554328
aF-20.846573959026518
aF-19.714195343243276
aF-19.176712293483188
aF-19.217548915188836
aF-17.716966391136541
aF-20.584572482758261
aF-18.737102626584488
aF-23.193311468001816
aF-17.692001448565833
aF-17.7465899293021
aF-17.81237798332506
aF-20.274130478827768
aF-17.398129082544024
aF-18.158265158208138
aF-16.987378559583963
aF-16.79635337131014
asg56
S'run 2'
p76
sbasg10
(lp77
g1
(g61
g3
NtRp78
(dp79
g64
I01
sg65
Nsg66
(lp80
S'unknown'
p81
aS'unknown'
p82
aS'unknown'
p83
aS'unknown'
p84
aS'unknown'
p85
aS'unknown'
p86
aS'unknown'
p87
aS'unknown'
p88
aS'unknown'
p89
aS'unknown'
p90
aS'unknown'
p91
aS'unknown'
p92
aS'unknown'
p93
aS'unknown'
p94
aS'unknown'
p95
aS'unknown'
p96
aS'unknown'
p97
aS'unknown'
p98
aS'unknown'
p99
aS'unknown'
p100
asg56
g68
sbag1
(g61
g3
NtRp101
(dp102
g64
I01
sg65
Nsg66
(lp103
S'unknown'
p104
aS'unknown'
p105
aS'unknown'
p106
aS'unknown'
p107
aS'unknown'
p108
aS'unknown'
p109
aS'unknown'
p110
aS'unknown'
p111
aS'unknown'
p112
aS'unknown'
p113
aS'unknown'
p114
aS'unknown'
p115
aS'unknown'
p116
aS'unknown'
p117
aS'unknown'
p118
aS'unknown'
p119
aS'unknown'
p120
aS'unknown'
p121
aS'unknown'
p122
aS'unknown'
p123
asg56
g72
sbag1
(g61
g3
NtRp124
(dp125
g64
I01
sg65
Nsg66
(lp126
S'unknown'
p127
aS'unknown'
p128
aS'unknown'
p129
aS'unknown'
p130
aS'unknown'
p131
aS'unknown'
p132
aS'unknown'
p133
aS'unknown'
p134
aS'unknown'
p135
aS'unknown'
p136
aS'unknown'
p137
aS'unknown'
p138
aS'unknown'
p139
aS'unknown'
p140
aS'unknown'
p141
aS'unknown'
p142
aS'unknown'
p143
aS'unknown'
p144
aS'unknown'
p145
aS'unknown'
p146
asg56
g76
sbasg12
(lp147
g1
(g61
g3
NtRp148
(dp149
g64
I01
sg65
Nsg66
(lp150
S'unknown'
p151
aS'unknown'
p152
aS'unknown'
p153
aS'unknown'
p154
aS'unknown'
p155
aS'unknown'
p156
aS'unknown'
p157
aS'unknown'
p158
aS'unknown'
p159
aS'unknown'
p160
aS'unknown'
p161
aS'unknown'
p162
aS'unknown'
p163
aS'unknown'
p164
aS'unknown'
p165
aS'unknown'
p166
aS'unknown'
p167
aS'unknown'
p168
aS'unknown'
p169
aS'unknown'
p170
asg56
g68
sbag1
(g61
g3
NtRp171
(dp172
g64
I01
sg65
Nsg66
(lp173
S'unknown'
p174
aS'unknown'
p175
aS'unknown'
p176
aS'unknown'
p177
aS'unknown'
p178
aS'unknown'
p179
aS'unknown'
p180
aS'unknown'
p181
aS'unknown'
p182
aS'unknown'
p183
aS'unknown'
p184
aS'unknown'
p185
aS'unknown'
p186
aS'unknown'
p187
aS'unknown'
p188
aS'unknown'
p189
aS'unknown'
p190
aS'unknown'
p191
aS'unknown'
p192
aS'unknown'
p193
asg56
g72
sbag1
(g61
g3
NtRp194
(dp195
g64
I01
sg65
Nsg66
(lp196
S'unknown'
p197
aS'unknown'
p198
aS'unknown'
p199
aS'unknown'
p200
aS'unknown'
p201
aS'unknown'
p202
aS'unknown'
p203
aS'unknown'
p204
aS'unknown'
p205
aS'unknown'
p206
aS'unknown'
p207
aS'unknown'
p208
aS'unknown'
p209
aS'unknown'
p210
aS'unknown'
p211
aS'unknown'
p212
aS'unknown'
p213
aS'unknown'
p214
aS'unknown'
p215
aS'unknown'
p216
asg56
g76
sbasg14
(lp217
g1
(g61
g3
NtRp218
(dp219
g64
I01
sg65
Nsg66
(lp220
S'opaque'
p221
aS'opaque'
p222
aS'opaque'
p223
aS'opaque'
p224
aS'opaque'
p225
aS'opaque'
p226
aS'opaque'
p227
aS'opaque'
p228
aS'opaque'
p229
aS'opaque'
p230
aS'opaque'
p231
aS'opaque'
p232
aS'opaque'
p233
aS'opaque'
p234
aS'opaque'
p235
aS'opaque'
p236
aS'opaque'
p237
aS'opaque'
p238
aS'opaque'
p239
aS'opaque'
p240
asg56
g68
sbag1
(g61
g3
NtRp241
(dp242
g64
I01
sg65
Nsg66
(lp243
S'opaque'
p244
aS'opaque'
p245
aS'opaque'
p246
aS'opaque'
p247
aS'opaque'
p248
aS'opaque'
p249
aS'opaque'
p250
aS'opaque'
p251
aS'opaque'
p252
aS'opaque'
p253
aS'opaque'
p254
aS'opaque'
p255
aS'opaque'
p256
aS'opaque'
p257
aS'opaque'
p258
aS'opaque'
p259
aS'opaque'
p260
aS'opaque'
p261
aS'opaque'
p262
aS'opaque'
p263
asg56
g72
sbag1
(g61
g3
NtRp264
(dp265
g64
I01
sg65
Nsg66
(lp266
S'opaque'
p267
aS'opaque'
p268
aS'opaque'
p269
aS'opaque'
p270
aS'opaque'
p271
aS'opaque'
p272
aS'opaque'
p273
aS'opaque'
p274
aS'opaque'
p275
aS'opaque'
p276
aS'opaque'
p277
aS'opaque'
p278
aS'opaque'
p279
aS'opaque'
p280
aS'opaque'
p281
aS'opaque'
p282
aS'opaque'
p283
aS'opaque'
p284
aS'opaque'
p285
aS'opaque'
p286
asg56
g76
sbasg16
(lp287
g1
(g61
g3
NtRp288
(dp289
g64
I01
sg65
Nsg66
(lp290
S'unknown'
p291
aS'unknown'
p292
aS'unknown'
p293
aS'unknown'
p294
aS'unknown'
p295
aS'unknown'
p296
aS'unknown'
p297
aS'unknown'
p298
aS'unknown'
p299
aS'unknown'
p300
aS'unknown'
p301
aS'unknown'
p302
aS'unknown'
p303
aS'unknown'
p304
aS'unknown'
p305
aS'unknown'
p306
aS'unknown'
p307
aS'unknown'
p308
aS'unknown'
p309
aS'unknown'
p310
asg56
g68
sbag1
(g61
g3
NtRp311
(dp312
g64
I01
sg65
Nsg66
(lp313
S'unknown'
p314
aS'unknown'
p315
aS'unknown'
p316
aS'unknown'
p317
aS'unknown'
p318
aS'unknown'
p319
aS'unknown'
p320
aS'unknown'
p321
aS'unknown'
p322
aS'unknown'
p323
aS'unknown'
p324
aS'unknown'
p325
aS'unknown'
p326
aS'unknown'
p327
aS'unknown'
p328
aS'unknown'
p329
aS'unknown'
p330
aS'unknown'
p331
aS'unknown'
p332
aS'unknown'
p333
asg56
g72
sbag1
(g61
g3
NtRp334
(dp335
g64
I01
sg65
Nsg66
(lp336
S'unknown'
p337
aS'unknown'
p338
aS'unknown'
p339
aS'unknown'
p340
aS'unknown'
p341
aS'unknown'
p342
aS'unknown'
p343
aS'unknown'
p344
aS'unknown'
p345
aS'unknown'
p346
aS'unknown'
p347
aS'unknown'
p348
aS'unknown'
p349
aS'unknown'
p350
aS'unknown'
p351
aS'unknown'
p352
aS'unknown'
p353
aS'unknown'
p354
aS'unknown'
p355
aS'unknown'
p356
asg56
g76
sbasg18
(lp357
g1
(g61
g3
NtRp358
(dp359
g64
I01
sg65
Nsg66
(lp360
F9.8921537386865985
aF11.467341914243944
aF7.192645153623717
aF10.669954567488167
aF8.8713117018051939
aF7.7588864910281501
aF7.2187801575049031
aF5.3185713508206911
aF9.498211435461986
aF9.2567021390844033
aF7.0386882787550924
aF7.1452712367433477
aF7.5016039074631014
aF9.7614275700453064
aF10.701534127386763
aF7.8029868357517191
aF10.789061478945957
aF10.157882061444145
aF8.1590235156888777
aF4.615286376868017
asg56
g68
sbag1
(g61
g3
NtRp361
(dp362
g64
I01
sg65
Nsg66
(lp363
F15.154167063362159
aF16.249012228089946
aF17.060463201277699
aF14.886126630266517
aF14.888622862793959
aF13.099462385375652
aF14.632041979401606
aF13.541659390765631
aF8.4464319018304206
aF7.5298234867080538
aF4.518588361140667
aF4.5982366824728658
aF6.1598078085272689
aF4.4628686011478464
aF6.2785299903063834
aF7.7743099233644806
aF9.6529606569189621
aF11.472527578019434
aF7.7715807772698611
aF7.4946081685274049
asg56
g72
sbag1
(g61
g3
NtRp364
(dp365
g64
I01
sg65
Nsg66
(lp366
F17.15655084032149
aF19.280931226813937
aF18.871435353328447
aF16.873232111403215
aF13.798358056250287
aF16.173972396342421
aF13.761555901803177
aF10.960045597807948
aF9.381477202884005
aF10.21816238803056
aF8.9088103979941415
aF7.9463255245204678
aF9.2334267177359344
aF8.4099068533414822
aF5.3011532176402643
aF6.3060055839136204
aF8.6545946505492584
aF5.4283028038271048
aF6.182102677404262
aF7.3253852679123801
asg56
g76
sbasg20
(lp367
g1
(g61
g3
NtRp368
(dp369
g64
I01
sg65
Nsg66
(lp370
I14
aI4
aI4
aI4
aI4
aI4
aI4
aI4
aI4
aI4
aI4
aI4
aI4
aI4
aI4
aI4
aI4
aI4
aI4
aI4
asg56
g68
sbag1
(g61
g3
NtRp371
(dp372
g64
I01
sg65
Nsg66
(lp373
I14
aI4
aI4
aI4
aI4
aI4
aI4
aI4
aI4
aI4
aI4
aI4
aI4
aI4
aI4
aI4
aI4
aI4
aI4
aI4
asg56
g72
sbag1
(g61
g3
NtRp374
(dp375
g64
I01
sg65
Nsg66
(lp376
I14
aI4
aI4
aI4
aI4
aI4
aI4
aI4
aI4
aI4
aI4
aI4
aI4
aI4
aI4
aI4
aI4
aI4
aI4
aI4
asg56
g76
sbasg22
(lp377
g1
(g61
g3
NtRp378
(dp379
g64
I01
sg65
Nsg66
(lp380
S'unknown'
p381
aS'unknown'
p382
aS'unknown'
p383
aS'unknown'
p384
aS'unknown'
p385
aS'unknown'
p386
aS'unknown'
p387
aS'unknown'
p388
aS'unknown'
p389
aS'unknown'
p390
aS'unknown'
p391
aS'unknown'
p392
aS'unknown'
p393
aS'unknown'
p394
aS'unknown'
p395
aS'unknown'
p396
aS'unknown'
p397
aS'unknown'
p398
aS'unknown'
p399
aS'unknown'
p400
asg56
g68
sbag1
(g61
g3
NtRp401
(dp402
g64
I01
sg65
Nsg66
(lp403
S'unknown'
p404
aS'unknown'
p405
aS'unknown'
p406
aS'unknown'
p407
aS'unknown'
p408
aS'unknown'
p409
aS'unknown'
p410
aS'unknown'
p411
aS'unknown'
p412
aS'unknown'
p413
aS'unknown'
p414
aS'unknown'
p415
aS'unknown'
p416
aS'unknown'
p417
aS'unknown'
p418
aS'unknown'
p419
aS'unknown'
p420
aS'unknown'
p421
aS'unknown'
p422
aS'unknown'
p423
asg56
g72
sbag1
(g61
g3
NtRp424
(dp425
g64
I01
sg65
Nsg66
(lp426
S'unknown'
p427
aS'unknown'
p428
aS'unknown'
p429
aS'unknown'
p430
aS'unknown'
p431
aS'unknown'
p432
aS'unknown'
p433
aS'unknown'
p434
aS'unknown'
p435
aS'unknown'
p436
aS'unknown'
p437
aS'unknown'
p438
aS'unknown'
p439
aS'unknown'
p440
aS'unknown'
p441
aS'unknown'
p442
aS'unknown'
p443
aS'unknown'
p444
aS'unknown'
p445
aS'unknown'
p446
asg56
g76
sbasg24
(lp447
g1
(g61
g3
NtRp448
(dp449
g64
I01
sg65
Nsg66
(lp450
F62.04934287071228
aF60.736281156539917
aF57.759390115737915
aF60.469192028045654
aF60.933135032653809
aF62.309647798538208
aF59.502469062805176
aF60.070620059967041
aF62.215152025222778
aF62.615904808044434
aF60.485250949859619
aF58.601387023925781
aF61.503957986831665
aF60.836820125579834
aF61.152930021286011
aF60.620537042617798
aF67.273988962173462
aF61.37273383140564
aF62.219949960708618
aF61.912581920623779
asg56
g68
sbag1
(g61
g3
NtRp451
(dp452
g64
I01
sg65
Nsg66
(lp453
F78.856823205947876
aF63.96787691116333
aF63.075061798095703
aF64.628053903579712
aF65.616865873336792
aF70.057672023773193
aF60.55900502204895
aF61.513086080551147
aF49.681897878646851
aF57.499327898025513
aF51.616382837295532
aF48.15523099899292
aF54.015210866928101
aF48.687820911407471
aF49.300384044647217
aF50.053019046783447
aF54.350385904312134
aF56.638343095779419
aF68.43665599822998
aF59.745384931564331
asg56
g72
sbag1
(g61
g3
NtRp454
(dp455
g64
I01
sg65
Nsg66
(lp456
F66.055972099304199
aF62.150619029998779
aF68.937962055206299
aF64.134545087814331
aF58.921383142471313
aF57.703339099884033
aF53.054103136062622
aF54.789529085159302
aF53.806066036224365
aF53.43350887298584
aF56.187422037124634
aF53.827061891555786
aF51.950477838516235
aF52.169677972793579
aF53.954865217208862
aF51.589319944381714
aF53.706181049346924
aF52.73086404800415
aF50.048675060272217
aF50.328500032424927
asg56
g76
sbasg25
(lp457
g1
(g61
g3
NtRp458
(dp459
g64
I01
sg65
Nsg66
(lp460
F9.244545278731664
aF9.1737117919581017
aF5.1856664031254134
aF3.7745193377682318
aF2.6919840196899543
aF3.1446162137304228
aF6.3750826045580595
aF3.5445804499016695
aF5.2277215260367758
aF5.0347346479300974
aF3.0965450452638215
aF6.0320872244092829
aF0.91034489972618371
aF5.6909055404168853
aF5.615639068567674
aF1.6175122149633692
aF11.589376359318923
aF4.6912306335236256
aF6.5840466696018627
aF0.8527842197803962
asg56
g68
sbag1
(g61
g3
NtRp461
(dp462
g64
I01
sg65
Nsg66
(lp463
F0.85664422294012343
aF4.0208053652076385
aF2.4013042485223917
aF0.71335160296966871
aF2.3216197123934434
aF5.3134630131307965
aF5.9685359710102235
aF5.3275698380135097
aF3.3057245127001171
aF1.9690627424187608
aF1.9256512854115315
aF2.6362812956596926
aF6.2248015332344373
aF0.0061959072947151868
aF2.7360267595620269
aF0.58244010054207762
aF2.4329015934171974
aF5.5494092570203319
aF6.0937677634143412
aF1.381953108287906
asg56
g72
sbag1
(g61
g3
NtRp464
(dp465
g64
I01
sg65
Nsg66
(lp466
F14.888814426537653
aF16.310551548283875
aF10.25289756011006
aF10.744650867095327
aF5.2004710938809007
aF5.835939191874683
aF4.7645714069001821
aF4.534275324545094
aF7.3373620966033624
aF2.3054184533971185
aF7.9342168005599714
aF9.4958999654884497
aF7.307239013806786
aF3.2808740696699727
aF1.1054390302334232
aF5.1861649785507709
aF4.7503932462587537
aF6.284463055148013
aF0.20886151404820599
aF4.2209129453723717
asg56
g76
sbasg27
(lp467
g1
(g61
g3
NtRp468
(dp469
g64
I01
sg65
Nsg66
(lp470
F11.997728083559416
aF15.509796068179028
aF8.9589624628742186
aF20.469032719869571
aF17.068520550288664
aF10.981097024838427
aF8.4787090608935465
aF7.3478727202748537
aF15.046127292923364
aF13.546273586233333
aF10.613304021411039
aF5.8962956470667791
aF16.936006296233646
aF16.819680576159506
aF15.809132801279361
aF15.795068159568064
aF12.462927115046691
aF17.003246325830794
aF9.72613462945049
aF6.9006325956589549
asg56
g68
sbag1
(g61
g3
NtRp471
(dp472
g64
I01
sg65
Nsg66
(lp473
F33.350475603273196
aF37.856669457407477
aF38.457681943480608
aF33.488080956402968
aF31.824726653806252
aF22.507355245376694
aF24.819412154020497
aF21.804072894000427
aF15.928348352856794
aF14.964317694322965
aF6.7964018227753904
aF6.4709679602725823
aF6.6985563964624362
aF5.9443446406515967
aF11.582296154363359
aF14.064435022261996
aF21.823763988036518
aF19.519403825338671
aF11.08525914133563
aF12.347786079070238
asg56
g72
sbag1
(g61
g3
NtRp474
(dp475
g64
I01
sg65
Nsg66
(lp476
F19.257638052413082
aF28.128336946967714
aF34.470051052757917
aF26.06048103676823
aF25.275549689620696
aF30.253132589314767
aF26.454496377967629
aF16.856682048667551
aF13.74536633686159
aF15.135029467108243
aF11.353091047722824
aF10.365113174915466
aF11.070350609038815
aF14.215199679982007
aF10.985792712451225
aF11.318190250566811
aF12.737029863419545
aF5.636234017927551
aF11.033089422319449
aF10.494500098853729
asg56
g76
sbasg29
(lp477
g1
(g61
g3
NtRp478
(dp479
g64
I01
sg65
Nsg66
(lp480
F3.939159692291093
aF3.849030198217148
aF0.7877645173467176
aF3.3961287398250652
aF4.2460468027799969
aF0.032645611250931766
aF4.7624276419276717
aF1.4716201908296362
aF7.8606450638394563
aF1.9179362599504985
aF1.1206905092012727
aF3.9996078065785996
aF10.579944627447816
aF2.9315374223060608
aF1.926850426976114
aF1.9674079402222502
aF3.1127242500095202
aF5.5699585445161333
aF0.86831643147651905
aF5.4294122662360405
asg56
g68
sbag1
(g61
g3
NtRp481
(dp482
g64
I01
sg65
Nsg66
(lp483
F8.556409657937504
aF13.55114569854106
aF12.123550601667093
aF11.302646945422637
aF10.772212092258158
aF6.8340231439402075
aF4.5403373097602149
aF3.6988804499207997
aF6.1157445861042294
aF5.2258879931626065
aF6.1786360083298986
aF4.4014435228400011
aF3.8056060896693187
aF3.8382236688768074
aF2.7645401202394133
aF3.1075167744688064
aF6.8077822881196237
aF2.3449802617537827
aF4.5780387045228998
aF2.6914063180499452
asg56
g72
sbag1
(g61
g3
NtRp484
(dp485
g64
I01
sg65
Nsg66
(lp486
F2.0956747985842368
aF6.3141551737307147
aF10.180159914323301
aF7.4880152561396223
aF10.463956912984981
aF6.7027069673434436
aF5.9647191714976033
aF5.3456568948355256
aF4.3145321747672476
aF3.8782451014155779
aF6.2229099418122331
aF7.5657428672510312
aF2.4766974248948888
aF1.6056144096061327
aF5.9947870710053675
aF5.0382892101758801
aF4.0665362815472648
aF1.5858050913145543
aF3.13382099854809
aF2.9738690433713604
asg56
g76
sbasg31
(lp487
g1
(g61
g3
NtRp488
(dp489
g64
I01
sg65
Nsg66
(lp490
S'unknown'
p491
aS'unknown'
p492
aS'unknown'
p493
aS'unknown'
p494
aS'unknown'
p495
aS'unknown'
p496
aS'unknown'
p497
aS'unknown'
p498
aS'unknown'
p499
aS'unknown'
p500
aS'unknown'
p501
aS'unknown'
p502
aS'unknown'
p503
aS'unknown'
p504
aS'unknown'
p505
aS'unknown'
p506
aS'unknown'
p507
aS'unknown'
p508
aS'unknown'
p509
aS'unknown'
p510
asg56
g68
sbag1
(g61
g3
NtRp511
(dp512
g64
I01
sg65
Nsg66
(lp513
S'unknown'
p514
aS'unknown'
p515
aS'unknown'
p516
aS'unknown'
p517
aS'unknown'
p518
aS'unknown'
p519
aS'unknown'
p520
aS'unknown'
p521
aS'unknown'
p522
aS'unknown'
p523
aS'unknown'
p524
aS'unknown'
p525
aS'unknown'
p526
aS'unknown'
p527
aS'unknown'
p528
aS'unknown'
p529
aS'unknown'
p530
aS'unknown'
p531
aS'unknown'
p532
aS'unknown'
p533
asg56
g72
sbag1
(g61
g3
NtRp534
(dp535
g64
I01
sg65
Nsg66
(lp536
S'unknown'
p537
aS'unknown'
p538
aS'unknown'
p539
aS'unknown'
p540
aS'unknown'
p541
aS'unknown'
p542
aS'unknown'
p543
aS'unknown'
p544
aS'unknown'
p545
aS'unknown'
p546
aS'unknown'
p547
aS'unknown'
p548
aS'unknown'
p549
aS'unknown'
p550
aS'unknown'
p551
aS'unknown'
p552
aS'unknown'
p553
aS'unknown'
p554
aS'unknown'
p555
aS'unknown'
p556
asg56
g76
sbasg33
(lp557
g1
(g61
g3
NtRp558
(dp559
g64
I01
sg65
Nsg66
(lp560
(lp561
F0
aF1
aF2
aF3
aF4
aF5
aF6
aF7
aF8
aF9
aF10
aF11
aF12
aF13
aF14
aF15
aa(lp562
F0
aF1
aF2
aF3
aF4
aF5
aF6
aF7
aF8
aF9
aF10
aF11
aF12
aF13
aF14
aF15
aa(lp563
F0
aF1
aF2
aF3
aF4
aF5
aF6
aF7
aF8
aF9
aF10
aF11
aF12
aF13
aF14
aF15
aa(lp564
F0
aF1
aF2
aF3
aF4
aF5
aF6
aF7
aF8
aF9
aF10
aF11
aF12
aF13
aF14
aF15
aa(lp565
F0
aF1
aF2
aF3
aF4
aF5
aF6
aF7
aF8
aF9
aF10
aF11
aF12
aF13
aF14
aF15
aa(lp566
F0
aF1
aF2
aF3
aF4
aF5
aF6
aF7
aF8
aF9
aF10
aF11
aF12
aF13
aF14
aF15
aa(lp567
F0
aF1
aF2
aF3
aF4
aF5
aF6
aF7
aF8
aF9
aF10
aF11
aF12
aF13
aF14
aF15
aa(lp568
F0
aF1
aF2
aF3
aF4
aF5
aF6
aF7
aF8
aF9
aF10
aF11
aF12
aF13
aF14
aF15
aa(lp569
F0
aF1
aF2
aF3
aF4
aF5
aF6
aF7
aF8
aF9
aF10
aF11
aF12
aF13
aF14
aF15
aa(lp570
F0
aF1
aF2
aF3
aF4
aF5
aF6
aF7
aF8
aF9
aF10
aF11
aF12
aF13
aF14
aF15
aa(lp571
F0
aF1
aF2
aF3
aF4
aF5
aF6
aF7
aF8
aF9
aF10
aF11
aF12
aF13
aF14
aF15
aa(lp572
F0
aF1
aF2
aF3
aF4
aF5
aF6
aF7
aF8
aF9
aF10
aF11
aF12
aF13
aF14
aF15
aa(lp573
F0
aF1
aF2
aF3
aF4
aF5
aF6
aF7
aF8
aF9
aF10
aF11
aF12
aF13
aF14
aF15
aa(lp574
F0
aF1
aF2
aF3
aF4
aF5
aF6
aF7
aF8
aF9
aF10
aF11
aF12
aF13
aF14
aF15
aa(lp575
F0
aF1
aF2
aF3
aF4
aF5
aF6
aF7
aF8
aF9
aF10
aF11
aF12
aF13
aF14
aF15
aa(lp576
F0
aF1
aF2
aF3
aF4
aF5
aF6
aF7
aF8
aF9
aF10
aF11
aF12
aF13
aF14
aF15
aa(lp577
F0
aF1
aF2
aF3
aF4
aF5
aF6
aF7
aF8
aF9
aF10
aF11
aF12
aF13
aF14
aF15
aa(lp578
F0
aF1
aF2
aF3
aF4
aF5
aF6
aF7
aF8
aF9
aF10
aF11
aF12
aF13
aF14
aF15
aa(lp579
F0
aF1
aF2
aF3
aF4
aF5
aF6
aF7
aF8
aF9
aF10
aF11
aF12
aF13
aF14
aF15
aa(lp580
F0
aF1
aF2
aF3
aF4
aF5
aF6
aF7
aF8
aF9
aF10
aF11
aF12
aF13
aF14
aF15
aasg56
g68
sbag1
(g61
g3
NtRp581
(dp582
g64
I01
sg65
Nsg66
(lp583
(lp584
F0
aF1
aF2
aF3
aF4
aF5
aF6
aF7
aF8
aF9
aF10
aF11
aF12
aF13
aF14
aF15
aa(lp585
F0
aF1
aF2
aF3
aF4
aF5
aF6
aF7
aF8
aF9
aF10
aF11
aF12
aF13
aF14
aF15
aa(lp586
F0
aF1
aF2
aF3
aF4
aF5
aF6
aF7
aF8
aF9
aF10
aF11
aF12
aF13
aF14
aF15
aa(lp587
F0
aF1
aF2
aF3
aF4
aF5
aF6
aF7
aF8
aF9
aF10
aF11
aF12
aF13
aF14
aF15
aa(lp588
F0
aF1
aF2
aF3
aF4
aF5
aF6
aF7
aF8
aF9
aF10
aF11
aF12
aF13
aF14
aF15
aa(lp589
F0
aF1
aF2
aF3
aF4
aF5
aF6
aF7
aF8
aF9
aF10
aF11
aF12
aF13
aF14
aF15
aa(lp590
F0
aF1
aF2
aF3
aF4
aF5
aF6
aF7
aF8
aF9
aF10
aF11
aF12
aF13
aF14
aF15
aa(lp591
F0
aF1
aF2
aF3
aF4
aF5
aF6
aF7
aF8
aF9
aF10
aF11
aF12
aF13
aF14
aF15
aa(lp592
F0
aF1
aF2
aF3
aF4
aF5
aF6
aF7
aF8
aF9
aF10
aF11
aF12
aF13
aF14
aF15
aa(lp593
F0
aF1
aF2
aF3
aF4
aF5
aF6
aF7
aF8
aF9
aF10
aF11
aF12
aF13
aF14
aF15
aa(lp594
F0
aF1
aF2
aF3
aF4
aF5
aF6
aF7
aF8
aF9
aF10
aF11
aF12
aF13
aF14
aF15
aa(lp595
F0
aF1
aF2
aF3
aF4
aF5
aF6
aF7
aF8
aF9
aF10
aF11
aF12
aF13
aF14
aF15
aa(lp596
F0
aF1
aF2
aF3
aF4
aF5
aF6
aF7
aF8
aF9
aF10
aF11
aF12
aF13
aF14
aF15
aa(lp597
F0
aF1
aF2
aF3
aF4
aF5
aF6
aF7
aF8
aF9
aF10
aF11
aF12
aF13
aF14
aF15
aa(lp598
F0
aF1
aF2
aF3
aF4
aF5
aF6
aF7
aF8
aF9
aF10
aF11
aF12
aF13
aF14
aF15
aa(lp599
F0
aF1
aF2
aF3
aF4
aF5
aF6
aF7
aF8
aF9
aF10
aF11
aF12
aF13
aF14
aF15
aa(lp600
F0
aF1
aF2
aF3
aF4
aF5
aF6
aF7
aF8
aF9
aF10
aF11
aF12
aF13
aF14
aF15
aa(lp601
F0
aF1
aF2
aF3
aF4
aF5
aF6
aF7
aF8
aF9
aF10
aF11
aF12
aF13
aF14
aF15
aa(lp602
F0
aF1
aF2
aF3
aF4
aF5
aF6
aF7
aF8
aF9
aF10
aF11
aF12
aF13
aF14
aF15
aa(lp603
F0
aF1
aF2
aF3
aF4
aF5
aF6
aF7
aF8
aF9
aF10
aF11
aF12
aF13
aF14
aF15
aasg56
g72
sbag1
(g61
g3
NtRp604
(dp605
g64
I01
sg65
Nsg66
(lp606
(lp607
F0
aF1
aF2
aF3
aF4
aF5
aF6
aF7
aF8
aF9
aF10
aF11
aF12
aF13
aF14
aF15
aa(lp608
F0
aF1
aF2
aF3
aF4
aF5
aF6
aF7
aF8
aF9
aF10
aF11
aF12
aF13
aF14
aF15
aa(lp609
F0
aF1
aF2
aF3
aF4
aF5
aF6
aF7
aF8
aF9
aF10
aF11
aF12
aF13
aF14
aF15
aa(lp610
F0
aF1
aF2
aF3
aF4
aF5
aF6
aF7
aF8
aF9
aF10
aF11
aF12
aF13
aF14
aF15
aa(lp611
F0
aF1
aF2
aF3
aF4
aF5
aF6
aF7
aF8
aF9
aF10
aF11
aF12
aF13
aF14
aF15
aa(lp612
F0
aF1
aF2
aF3
aF4
aF5
aF6
aF7
aF8
aF9
aF10
aF11
aF12
aF13
aF14
aF15
aa(lp613
F0
aF1
aF2
aF3
aF4
aF5
aF6
aF7
aF8
aF9
aF10
aF11
aF12
aF13
aF14
aF15
aa(lp614
F0
aF1
aF2
aF3
aF4
aF5
aF6
aF7
aF8
aF9
aF10
aF11
aF12
aF13
aF14
aF15
aa(lp615
F0
aF1
aF2
aF3
aF4
aF5
aF6
aF7
aF8
aF9
aF10
aF11
aF12
aF13
aF14
aF15
aa(lp616
F0
aF1
aF2
aF3
aF4
aF5
aF6
aF7
aF8
aF9
aF10
aF11
aF12
aF13
aF14
aF15
aa(lp617
F0
aF1
aF2
aF3
aF4
aF5
aF6
aF7
aF8
aF9
aF10
aF11
aF12
aF13
aF14
aF15
aa(lp618
F0
aF1
aF2
aF3
aF4
aF5
aF6
aF7
aF8
aF9
aF10
aF11
aF12
aF13
aF14
aF15
aa(lp619
F0
aF1
aF2
aF3
aF4
aF5
aF6
aF7
aF8
aF9
aF10
aF11
aF12
aF13
aF14
aF15
aa(lp620
F0
aF1
aF2
aF3
aF4
aF5
aF6
aF7
aF8
aF9
aF10
aF11
aF12
aF13
aF14
aF15
aa(lp621
F0
aF1
aF2
aF3
aF4
aF5
aF6
aF7
aF8
aF9
aF10
aF11
aF12
aF13
aF14
aF15
aa(lp622
F0
aF1
aF2
aF3
aF4
aF5
aF6
aF7
aF8
aF9
aF10
aF11
aF12
aF13
aF14
aF15
aa(lp623
F0
aF1
aF2
aF3
aF4
aF5
aF6
aF7
aF8
aF9
aF10
aF11
aF12
aF13
aF14
aF15
aa(lp624
F0
aF1
aF2
aF3
aF4
aF5
aF6
aF7
aF8
aF9
aF10
aF11
aF12
aF13
aF14
aF15
aa(lp625
F0
aF1
aF2
aF3
aF4
aF5
aF6
aF7
aF8
aF9
aF10
aF11
aF12
aF13
aF14
aF15
aa(lp626
F0
aF1
aF2
aF3
aF4
aF5
aF6
aF7
aF8
aF9
aF10
aF11
aF12
aF13
aF14
aF15
aasg56
g76
sbasg35
(lp627
g1
(g61
g3
NtRp628
(dp629
g64
I01
sg65
Nsg66
(lp630
S'unknown'
p631
aS'unknown'
p632
aS'unknown'
p633
aS'unknown'
p634
aS'unknown'
p635
aS'unknown'
p636
aS'unknown'
p637
aS'unknown'
p638
aS'unknown'
p639
aS'unknown'
p640
aS'unknown'
p641
aS'unknown'
p642
aS'unknown'
p643
aS'unknown'
p644
aS'unknown'
p645
aS'unknown'
p646
aS'unknown'
p647
aS'unknown'
p648
aS'unknown'
p649
aS'unknown'
p650
asg56
g68
sbag1
(g61
g3
NtRp651
(dp652
g64
I01
sg65
Nsg66
(lp653
S'unknown'
p654
aS'unknown'
p655
aS'unknown'
p656
aS'unknown'
p657
aS'unknown'
p658
aS'unknown'
p659
aS'unknown'
p660
aS'unknown'
p661
aS'unknown'
p662
aS'unknown'
p663
aS'unknown'
p664
aS'unknown'
p665
aS'unknown'
p666
aS'unknown'
p667
aS'unknown'
p668
aS'unknown'
p669
aS'unknown'
p670
aS'unknown'
p671
aS'unknown'
p672
aS'unknown'
p673
asg56
g72
sbag1
(g61
g3
NtRp674
(dp675
g64
I01
sg65
Nsg66
(lp676
S'unknown'
p677
aS'unknown'
p678
aS'unknown'
p679
aS'unknown'
p680
aS'unknown'
p681
aS'unknown'
p682
aS'unknown'
p683
aS'unknown'
p684
aS'unknown'
p685
aS'unknown'
p686
aS'unknown'
p687
aS'unknown'
p688
aS'unknown'
p689
aS'unknown'
p690
aS'unknown'
p691
aS'unknown'
p692
aS'unknown'
p693
aS'unknown'
p694
aS'unknown'
p695
aS'unknown'
p696
asg56
g76
sbassS'data'
p697
(lp698
(S'(move 16 4 0)'
I0
tp699
a(S'(move 16 5 0)'
I0
tp700
a(S'(move 16 8 0)'
I5
tp701
a(S'(move 16 9 5)'
I5
tp702
a(S'(move 16 13 5)'
I11
tp703
a(S'(move 16 14 11)'
I15
tp704
a(S'(move 16 15 15)'
I15
tp705
a(S'(move 16 16 15)'
I15
tp706
a(S'(move 16 17 15)'
I15
tp707
a(S'(move 16 18 15)'
I15
tp708
asb.