ccopy_reg
_reconstructor
p1
(cventure.unit.history
History
p2
c__builtin__
object
p3
NtRp4
(dp5
S'nameToType'
p6
(dp7
S'logscore'
p8
S'number'
p9
sS'phi'
p10
S'sp'
p11
sS'count_birds'
p12
S'sp'
p13
sS'features'
p14
S'dict'
p15
sS'move'
p16
S'sp'
p17
sS'hypers3'
p18
S'number'
p19
sS'sweep_iters'
p20
S'count'
p21
sS'observe_birds'
p22
S'sp'
p23
sS'sweep time (s)'
p24
g21
sS'hypers0'
p25
S'number'
p26
sS'hypers1'
p27
S'number'
p28
sS'hypers2'
p29
S'number'
p30
sS'get_bird_move_dist'
p31
S'sp'
p32
sS'cell_array'
p33
S'array'
p34
sS'get_bird_pos'
p35
S'sp'
p36
ssS'parameters'
p37
(dp38
S'venture_random_seed'
p39
I0
sS'cells'
p40
I16
sS'days'
p41
(lp42
I0
aI1
aI2
aI3
aI4
aI5
aI6
aI7
aI8
aI9
aI10
aI11
aI12
aI13
aI14
aI15
aI16
aI17
aI18
aI19
asS'name'
p43
S'onebird'
p44
sS'years'
p45
(lp46
I28
assS'hypers'
p47
(lp48
cnumpy.core.multiarray
scalar
p49
(cnumpy
dtype
p50
(S'f8'
I0
I1
tRp51
(I3
S'<'
NNNI-1
I-1
I0
tbS'@\xc3^Km\x80h\xc0'
tRp52
ag49
(g51
S'\xb0\xefAl:\xddJ\xc0'
tRp53
ag49
(g51
S'0VHV\xb9o?\xc0'
tRp54
ag49
(g51
S'r)a\x86\x02/e\xc0'
tRp55
asS'label'
p56
S'run_from_conditional'
p57
sS'nameToSeries'
p58
(dp59
g8
(lp60
g1
(cventure.unit.history
Series
p61
g3
NtRp62
(dp63
S'hist'
p64
I01
sS'_xvals'
p65
NsS'values'
p66
(lp67
F-3030.844335292707
aF-3028.144550091763
aF-3027.7135538766547
aF-80.255574654498645
aF-81.435642327037897
aF-79.811509188563747
aF-82.353562789242474
aF-80.63252829068125
aF-80.561831224063823
aF-75.977737702929403
aF-76.95849417507776
aF-76.731716993149362
aF-77.959781660260433
aF-74.429192846062335
aF-75.260434893274393
aF-74.710183220632757
aF-74.291320833224887
aF-74.623309617002207
aF-74.407340324021618
aF-75.553830651859826
asg56
S'run 0'
p68
sbasg10
(lp69
g1
(g61
g3
NtRp70
(dp71
g64
I01
sg65
Nsg66
(lp72
S'unknown'
p73
aS'unknown'
p74
aS'unknown'
p75
aS'unknown'
p76
aS'unknown'
p77
aS'unknown'
p78
aS'unknown'
p79
aS'unknown'
p80
aS'unknown'
p81
aS'unknown'
p82
aS'unknown'
p83
aS'unknown'
p84
aS'unknown'
p85
aS'unknown'
p86
aS'unknown'
p87
aS'unknown'
p88
aS'unknown'
p89
aS'unknown'
p90
aS'unknown'
p91
aS'unknown'
p92
asg56
g68
sbasg12
(lp93
g1
(g61
g3
NtRp94
(dp95
g64
I01
sg65
Nsg66
(lp96
S'unknown'
p97
aS'unknown'
p98
aS'unknown'
p99
aS'unknown'
p100
aS'unknown'
p101
aS'unknown'
p102
aS'unknown'
p103
aS'unknown'
p104
aS'unknown'
p105
aS'unknown'
p106
aS'unknown'
p107
aS'unknown'
p108
aS'unknown'
p109
aS'unknown'
p110
aS'unknown'
p111
aS'unknown'
p112
aS'unknown'
p113
aS'unknown'
p114
aS'unknown'
p115
aS'unknown'
p116
asg56
g68
sbasg14
(lp117
g1
(g61
g3
NtRp118
(dp119
g64
I01
sg65
Nsg66
(lp120
S'opaque'
p121
aS'opaque'
p122
aS'opaque'
p123
aS'opaque'
p124
aS'opaque'
p125
aS'opaque'
p126
aS'opaque'
p127
aS'opaque'
p128
aS'opaque'
p129
aS'opaque'
p130
aS'opaque'
p131
aS'opaque'
p132
aS'opaque'
p133
aS'opaque'
p134
aS'opaque'
p135
aS'opaque'
p136
aS'opaque'
p137
aS'opaque'
p138
aS'opaque'
p139
aS'opaque'
p140
asg56
g68
sbasg16
(lp141
g1
(g61
g3
NtRp142
(dp143
g64
I01
sg65
Nsg66
(lp144
S'unknown'
p145
aS'unknown'
p146
aS'unknown'
p147
aS'unknown'
p148
aS'unknown'
p149
aS'unknown'
p150
aS'unknown'
p151
aS'unknown'
p152
aS'unknown'
p153
aS'unknown'
p154
aS'unknown'
p155
aS'unknown'
p156
aS'unknown'
p157
aS'unknown'
p158
aS'unknown'
p159
aS'unknown'
p160
aS'unknown'
p161
aS'unknown'
p162
aS'unknown'
p163
aS'unknown'
p164
asg56
g68
sbasg18
(lp165
g1
(g61
g3
NtRp166
(dp167
g64
I01
sg65
Nsg66
(lp168
F-248.2768165888952
aF-51.500723972286835
aF-9.1143902769068177
aF-9.1143902769068177
aF-57.617830081213071
aF-57.617830081213071
aF-74.447211955742716
aF-102.95196795028056
aF-102.95196795028056
aF-12.196013304939299
aF-84.523921772673532
aF-60.878147860126376
aF-66.630468641476511
aF-47.271047553349092
aF-140.10279726243931
aF-140.10279726243931
aF-43.875653300503075
aF-43.875653300503075
aF-43.875653300503075
aF-169.46905821778233
asg56
g68
sbasg20
(lp169
g1
(g61
g3
NtRp170
(dp171
g64
I01
sg65
Nsg66
(lp172
I22
aI8
aI8
aI8
aI8
aI8
aI8
aI8
aI8
aI8
aI8
aI8
aI8
aI8
aI8
aI8
aI8
aI8
aI8
aI8
asg56
g68
sbasg22
(lp173
g1
(g61
g3
NtRp174
(dp175
g64
I01
sg65
Nsg66
(lp176
S'unknown'
p177
aS'unknown'
p178
aS'unknown'
p179
aS'unknown'
p180
aS'unknown'
p181
aS'unknown'
p182
aS'unknown'
p183
aS'unknown'
p184
aS'unknown'
p185
aS'unknown'
p186
aS'unknown'
p187
aS'unknown'
p188
aS'unknown'
p189
aS'unknown'
p190
aS'unknown'
p191
aS'unknown'
p192
aS'unknown'
p193
aS'unknown'
p194
aS'unknown'
p195
aS'unknown'
p196
asg56
g68
sbasg24
(lp197
g1
(g61
g3
NtRp198
(dp199
g64
I01
sg65
Nsg66
(lp200
F1938.3167240619659
aF141.28958797454834
aF150.2835898399353
aF1409.8069508075714
aF98.859121084213257
aF126.01726102828979
aF115.27664709091187
aF120.20756816864014
aF114.57219290733337
aF110.5233998298645
aF52.225177049636841
aF63.624620914459229
aF101.66236901283264
aF129.62106108665466
aF79.426104068756104
aF63.877106904983521
aF76.147161960601807
aF49.532593965530396
aF45.40552806854248
aF94.158885955810547
asg56
g68
sbasg25
(lp201
g1
(g61
g3
NtRp202
(dp203
g64
I01
sg65
Nsg66
(lp204
F-7688.4990798044255
aF-7688.4990798044255
aF-7688.4990798044255
aF-406.14646381398234
aF-406.14646381398234
aF-372.396323695104
aF-372.396323695104
aF-372.396323695104
aF-370.40207452282812
aF-267.5243817463288
aF-290.15318998836483
aF-288.2559183899084
aF-288.2559183899084
aF-213.03060788733455
aF-210.09831908277738
aF-180.77388091899957
aF-204.86081593905146
aF-213.57537707712072
aF-196.01334160335864
aF-196.01334160335864
asg56
g68
sbasg27
(lp205
g1
(g61
g3
NtRp206
(dp207
g64
I01
sg65
Nsg66
(lp208
F-22.030100811010342
aF78.991636002465967
aF13.747971331264694
aF3.5154859561304193
aF3.5154859561304193
aF10.617902823753523
aF-209.26032288229851
aF-65.669417727941777
aF-68.551523898232858
aF-31.976548069127034
aF-31.976548069127034
aF-31.976548069127034
aF-177.50222303924909
aF28.456368434272569
aF28.456368434272569
aF21.216196349153158
aF-3.5929590288718636
aF-3.5929590288718636
aF-53.728345424838494
aF-53.728345424838494
asg56
g68
sbasg29
(lp209
g1
(g61
g3
NtRp210
(dp211
g64
I01
sg65
Nsg66
(lp212
F-41.003233551824621
aF30.335804127776832
aF30.335804127776832
aF0.68900508076495015
aF-142.70629259299875
aF118.5663110848198
aF137.83804351735472
aF137.83804351735472
aF136.67432456432454
aF-82.180163793577037
aF-82.180163793577037
aF-82.180163793577037
aF-9.8418820049466262
aF-9.8418820049466262
aF-23.836902842236839
aF-37.214379749106399
aF43.125896030260094
aF69.664415575951182
aF69.664415575951182
aF-31.436421768818207
asg56
g68
sbasg31
(lp213
g1
(g61
g3
NtRp214
(dp215
g64
I01
sg65
Nsg66
(lp216
S'unknown'
p217
aS'unknown'
p218
aS'unknown'
p219
aS'unknown'
p220
aS'unknown'
p221
aS'unknown'
p222
aS'unknown'
p223
aS'unknown'
p224
aS'unknown'
p225
aS'unknown'
p226
aS'unknown'
p227
aS'unknown'
p228
aS'unknown'
p229
aS'unknown'
p230
aS'unknown'
p231
aS'unknown'
p232
aS'unknown'
p233
aS'unknown'
p234
aS'unknown'
p235
aS'unknown'
p236
asg56
g68
sbasg33
(lp237
g1
(g61
g3
NtRp238
(dp239
g64
I01
sg65
Nsg66
(lp240
(lp241
F0
aF1
aF2
aF3
aF4
aF5
aF6
aF7
aF8
aF9
aF10
aF11
aF12
aF13
aF14
aF15
aa(lp242
F0
aF1
aF2
aF3
aF4
aF5
aF6
aF7
aF8
aF9
aF10
aF11
aF12
aF13
aF14
aF15
aa(lp243
F0
aF1
aF2
aF3
aF4
aF5
aF6
aF7
aF8
aF9
aF10
aF11
aF12
aF13
aF14
aF15
aa(lp244
F0
aF1
aF2
aF3
aF4
aF5
aF6
aF7
aF8
aF9
aF10
aF11
aF12
aF13
aF14
aF15
aa(lp245
F0
aF1
aF2
aF3
aF4
aF5
aF6
aF7
aF8
aF9
aF10
aF11
aF12
aF13
aF14
aF15
aa(lp246
F0
aF1
aF2
aF3
aF4
aF5
aF6
aF7
aF8
aF9
aF10
aF11
aF12
aF13
aF14
aF15
aa(lp247
F0
aF1
aF2
aF3
aF4
aF5
aF6
aF7
aF8
aF9
aF10
aF11
aF12
aF13
aF14
aF15
aa(lp248
F0
aF1
aF2
aF3
aF4
aF5
aF6
aF7
aF8
aF9
aF10
aF11
aF12
aF13
aF14
aF15
aa(lp249
F0
aF1
aF2
aF3
aF4
aF5
aF6
aF7
aF8
aF9
aF10
aF11
aF12
aF13
aF14
aF15
aa(lp250
F0
aF1
aF2
aF3
aF4
aF5
aF6
aF7
aF8
aF9
aF10
aF11
aF12
aF13
aF14
aF15
aa(lp251
F0
aF1
aF2
aF3
aF4
aF5
aF6
aF7
aF8
aF9
aF10
aF11
aF12
aF13
aF14
aF15
aa(lp252
F0
aF1
aF2
aF3
aF4
aF5
aF6
aF7
aF8
aF9
aF10
aF11
aF12
aF13
aF14
aF15
aa(lp253
F0
aF1
aF2
aF3
aF4
aF5
aF6
aF7
aF8
aF9
aF10
aF11
aF12
aF13
aF14
aF15
aa(lp254
F0
aF1
aF2
aF3
aF4
aF5
aF6
aF7
aF8
aF9
aF10
aF11
aF12
aF13
aF14
aF15
aa(lp255
F0
aF1
aF2
aF3
aF4
aF5
aF6
aF7
aF8
aF9
aF10
aF11
aF12
aF13
aF14
aF15
aa(lp256
F0
aF1
aF2
aF3
aF4
aF5
aF6
aF7
aF8
aF9
aF10
aF11
aF12
aF13
aF14
aF15
aa(lp257
F0
aF1
aF2
aF3
aF4
aF5
aF6
aF7
aF8
aF9
aF10
aF11
aF12
aF13
aF14
aF15
aa(lp258
F0
aF1
aF2
aF3
aF4
aF5
aF6
aF7
aF8
aF9
aF10
aF11
aF12
aF13
aF14
aF15
aa(lp259
F0
aF1
aF2
aF3
aF4
aF5
aF6
aF7
aF8
aF9
aF10
aF11
aF12
aF13
aF14
aF15
aa(lp260
F0
aF1
aF2
aF3
aF4
aF5
aF6
aF7
aF8
aF9
aF10
aF11
aF12
aF13
aF14
aF15
aasg56
g68
sbasg35
(lp261
g1
(g61
g3
NtRp262
(dp263
g64
I01
sg65
Nsg66
(lp264
S'unknown'
p265
aS'unknown'
p266
aS'unknown'
p267
aS'unknown'
p268
aS'unknown'
p269
aS'unknown'
p270
aS'unknown'
p271
aS'unknown'
p272
aS'unknown'
p273
aS'unknown'
p274
aS'unknown'
p275
aS'unknown'
p276
aS'unknown'
p277
aS'unknown'
p278
aS'unknown'
p279
aS'unknown'
p280
aS'unknown'
p281
aS'unknown'
p282
aS'unknown'
p283
aS'unknown'
p284
asg56
g68
sbassS'data'
p285
(lp286
(S'(get_bird_pos 28 1)'
I0
tp287
a(S'(get_bird_pos 28 2)'
I0
tp288
a(S'(get_bird_pos 28 3)'
I0
tp289
a(S'(get_bird_pos 28 5)'
I11
tp290
a(S'(get_bird_pos 28 7)'
I15
tp291
a(S'(get_bird_pos 28 8)'
I15
tp292
a(S'(get_bird_pos 28 10)'
I15
tp293
a(S'(get_bird_pos 28 11)'
I15
tp294
a(S'(get_bird_pos 28 12)'
I15
tp295
a(S'(get_bird_pos 28 14)'
I15
tp296
a(S'(get_bird_pos 28 15)'
I15
tp297
a(S'(get_bird_pos 28 16)'
I15
tp298
a(S'(get_bird_pos 28 17)'
I15
tp299
a(S'(get_bird_pos 28 18)'
I15
tp300
asb.