ccopy_reg
_reconstructor
p1
(cventure.unit.history
History
p2
c__builtin__
object
p3
NtRp4
(dp5
S'nameToType'
p6
(dp7
S'logscore'
p8
S'number'
p9
sS'phi'
p10
S'sp'
p11
sS'count_birds'
p12
S'sp'
p13
sS'features'
p14
S'dict'
p15
sS'move'
p16
S'sp'
p17
sS'hypers3'
p18
S'number'
p19
sS'sweep_iters'
p20
S'count'
p21
sS'observe_birds'
p22
S'sp'
p23
sS'sweep time (s)'
p24
g21
sS'hypers0'
p25
S'number'
p26
sS'hypers1'
p27
S'number'
p28
sS'hypers2'
p29
S'number'
p30
sS'get_bird_move_dist'
p31
S'sp'
p32
sS'cell_array'
p33
S'array'
p34
sS'get_bird_pos'
p35
S'sp'
p36
ssS'parameters'
p37
(dp38
S'venture_random_seed'
p39
I0
sS'cells'
p40
I16
sS'days'
p41
(lp42
I0
aI1
aI2
aI3
aI4
aI5
aI6
aI7
aI8
aI9
aI10
aI11
aI12
aI13
aI14
aI15
aI16
aI17
aI18
aI19
asS'name'
p43
S'onebird'
p44
sS'years'
p45
(lp46
I20
assS'hypers'
p47
(lp48
cnumpy.core.multiarray
scalar
p49
(cnumpy
dtype
p50
(S'f8'
I0
I1
tRp51
(I3
S'<'
NNNI-1
I-1
I0
tbS'\xbe\x1c\xca\xd9PyS\xc0'
tRp52
ag49
(g51
S'L\x02C\x82=\xdeZ@'
tRp53
ag49
(g51
S'\xdc_\xb9d\xa3t\x1a\xc0'
tRp54
ag49
(g51
S'\xa0\xa3\x05\x81\xd3,E\xc0'
tRp55
asS'label'
p56
S'run_from_conditional'
p57
sS'nameToSeries'
p58
(dp59
g8
(lp60
g1
(cventure.unit.history
Series
p61
g3
NtRp62
(dp63
S'hist'
p64
I01
sS'_xvals'
p65
NsS'values'
p66
(lp67
F-53.821570819238808
aF-53.632213890321403
aF-54.36846781275684
aF-54.3642175912791
aF-53.765576575196043
aF-53.659017146416417
aF-53.620149371919197
aF-53.270597081768386
aF-53.38006462689431
aF-53.35404119480534
aF-53.636828883494729
aF-53.822174607939566
aF-53.537557597200511
aF-55.636263417163171
aF-53.98849456757857
aF-53.504532652957344
aF-53.320837700076922
aF-53.155851505750313
aF-53.337649834698361
aF-53.869799083303782
asg56
S'run 0'
p68
sbasg10
(lp69
g1
(g61
g3
NtRp70
(dp71
g64
I01
sg65
Nsg66
(lp72
S'unknown'
p73
aS'unknown'
p74
aS'unknown'
p75
aS'unknown'
p76
aS'unknown'
p77
aS'unknown'
p78
aS'unknown'
p79
aS'unknown'
p80
aS'unknown'
p81
aS'unknown'
p82
aS'unknown'
p83
aS'unknown'
p84
aS'unknown'
p85
aS'unknown'
p86
aS'unknown'
p87
aS'unknown'
p88
aS'unknown'
p89
aS'unknown'
p90
aS'unknown'
p91
aS'unknown'
p92
asg56
g68
sbasg12
(lp93
g1
(g61
g3
NtRp94
(dp95
g64
I01
sg65
Nsg66
(lp96
S'unknown'
p97
aS'unknown'
p98
aS'unknown'
p99
aS'unknown'
p100
aS'unknown'
p101
aS'unknown'
p102
aS'unknown'
p103
aS'unknown'
p104
aS'unknown'
p105
aS'unknown'
p106
aS'unknown'
p107
aS'unknown'
p108
aS'unknown'
p109
aS'unknown'
p110
aS'unknown'
p111
aS'unknown'
p112
aS'unknown'
p113
aS'unknown'
p114
aS'unknown'
p115
aS'unknown'
p116
asg56
g68
sbasg14
(lp117
g1
(g61
g3
NtRp118
(dp119
g64
I01
sg65
Nsg66
(lp120
S'opaque'
p121
aS'opaque'
p122
aS'opaque'
p123
aS'opaque'
p124
aS'opaque'
p125
aS'opaque'
p126
aS'opaque'
p127
aS'opaque'
p128
aS'opaque'
p129
aS'opaque'
p130
aS'opaque'
p131
aS'opaque'
p132
aS'opaque'
p133
aS'opaque'
p134
aS'opaque'
p135
aS'opaque'
p136
aS'opaque'
p137
aS'opaque'
p138
aS'opaque'
p139
aS'opaque'
p140
asg56
g68
sbasg16
(lp141
g1
(g61
g3
NtRp142
(dp143
g64
I01
sg65
Nsg66
(lp144
S'unknown'
p145
aS'unknown'
p146
aS'unknown'
p147
aS'unknown'
p148
aS'unknown'
p149
aS'unknown'
p150
aS'unknown'
p151
aS'unknown'
p152
aS'unknown'
p153
aS'unknown'
p154
aS'unknown'
p155
aS'unknown'
p156
aS'unknown'
p157
aS'unknown'
p158
aS'unknown'
p159
aS'unknown'
p160
aS'unknown'
p161
aS'unknown'
p162
aS'unknown'
p163
aS'unknown'
p164
asg56
g68
sbasg18
(lp165
g1
(g61
g3
NtRp166
(dp167
g64
I01
sg65
Nsg66
(lp168
F-14.44404767739546
aF-14.44404767739546
aF-16.159076077695531
aF-93.740176344122347
aF-93.740176344122347
aF-93.740176344122347
aF-93.740176344122347
aF-57.285994673212599
aF-26.391200799559783
aF-56.800744520099443
aF-56.800744520099443
aF-69.655824268534388
aF-59.027685674903523
aF-191.21299149428455
aF-115.07722530683463
aF-62.207057105674949
aF-62.207057105674949
aF-25.050969725073855
aF-30.804342731665429
aF-42.350204589608666
asg56
g68
sbasg20
(lp169
g1
(g61
g3
NtRp170
(dp171
g64
I01
sg65
Nsg66
(lp172
I22
aI13
aI13
aI13
aI13
aI13
aI13
aI13
aI13
aI13
aI13
aI13
aI13
aI13
aI13
aI13
aI13
aI13
aI13
aI13
asg56
g68
sbasg22
(lp173
g1
(g61
g3
NtRp174
(dp175
g64
I01
sg65
Nsg66
(lp176
S'unknown'
p177
aS'unknown'
p178
aS'unknown'
p179
aS'unknown'
p180
aS'unknown'
p181
aS'unknown'
p182
aS'unknown'
p183
aS'unknown'
p184
aS'unknown'
p185
aS'unknown'
p186
aS'unknown'
p187
aS'unknown'
p188
aS'unknown'
p189
aS'unknown'
p190
aS'unknown'
p191
aS'unknown'
p192
aS'unknown'
p193
aS'unknown'
p194
aS'unknown'
p195
aS'unknown'
p196
asg56
g68
sbasg24
(lp197
g1
(g61
g3
NtRp198
(dp199
g64
I01
sg65
Nsg66
(lp200
F155.53353190422058
aF57.674670934677124
aF54.233963012695312
aF111.35003209114075
aF44.431905031204224
aF37.498281955718994
aF71.672083854675293
aF65.816622018814087
aF37.111605882644653
aF97.683384895324707
aF41.711014032363892
aF55.724418878555298
aF45.42662501335144
aF63.168309926986694
aF65.61158299446106
aF49.51342511177063
aF24.982920169830322
aF31.379040956497192
aF47.042495965957642
aF87.17366099357605
asg56
g68
sbasg25
(lp201
g1
(g61
g3
NtRp202
(dp203
g64
I01
sg65
Nsg66
(lp204
F-60.118654383916656
aF-60.118654383916656
aF-102.77548560999546
aF-102.77548560999546
aF-67.159689269831659
aF-75.526517825538548
aF-50.224461874563502
aF-50.224461874563502
aF-73.450789747631433
aF-73.450789747631433
aF-90.140049242984759
aF-90.140049242984759
aF-60.517107521754014
aF-108.96442619884598
aF-75.207152751611801
aF-75.207152751611801
aF-64.241609012114139
aF-64.241609012114139
aF-77.895559737563389
aF-77.895559737563389
asg56
g68
sbasg27
(lp205
g1
(g61
g3
NtRp206
(dp207
g64
I01
sg65
Nsg66
(lp208
F143.0203521429097
aF127.44286419409343
aF156.06097331857325
aF123.33387214532138
aF92.703579955082546
aF79.332139775436531
aF94.719019986037324
aF72.111977408686812
aF72.111977408686812
aF80.734991497872556
aF95.919694132218297
aF107.36704831784607
aF107.36704831784607
aF107.36704831784607
aF90.977301584370593
aF92.4164943399457
aF79.715857617565405
aF79.715857617565405
aF65.392159843825709
aF107.4725042013535
asg56
g68
sbasg29
(lp209
g1
(g61
g3
NtRp210
(dp211
g64
I01
sg65
Nsg66
(lp212
F9.0653135691398745
aF-9.1148788243437195
aF3.5755210594369089
aF3.5755210594369089
aF-6.8287972816171134
aF-0.56043902797605938
aF-0.56043902797605938
aF2.044583835974521
aF2.044583835974521
aF2.044583835974521
aF15.818177443100323
aF-5.4854147890992255
aF8.680540715031416
aF-11.891246882580131
aF-12.337293224256396
aF1.4459637689069806
aF6.7558473473546057
aF2.8030512150508322
aF2.8030512150508322
aF-6.6139045465606294
asg56
g68
sbasg31
(lp213
g1
(g61
g3
NtRp214
(dp215
g64
I01
sg65
Nsg66
(lp216
S'unknown'
p217
aS'unknown'
p218
aS'unknown'
p219
aS'unknown'
p220
aS'unknown'
p221
aS'unknown'
p222
aS'unknown'
p223
aS'unknown'
p224
aS'unknown'
p225
aS'unknown'
p226
aS'unknown'
p227
aS'unknown'
p228
aS'unknown'
p229
aS'unknown'
p230
aS'unknown'
p231
aS'unknown'
p232
aS'unknown'
p233
aS'unknown'
p234
aS'unknown'
p235
aS'unknown'
p236
asg56
g68
sbasg33
(lp237
g1
(g61
g3
NtRp238
(dp239
g64
I01
sg65
Nsg66
(lp240
(lp241
F0
aF1
aF2
aF3
aF4
aF5
aF6
aF7
aF8
aF9
aF10
aF11
aF12
aF13
aF14
aF15
aa(lp242
F0
aF1
aF2
aF3
aF4
aF5
aF6
aF7
aF8
aF9
aF10
aF11
aF12
aF13
aF14
aF15
aa(lp243
F0
aF1
aF2
aF3
aF4
aF5
aF6
aF7
aF8
aF9
aF10
aF11
aF12
aF13
aF14
aF15
aa(lp244
F0
aF1
aF2
aF3
aF4
aF5
aF6
aF7
aF8
aF9
aF10
aF11
aF12
aF13
aF14
aF15
aa(lp245
F0
aF1
aF2
aF3
aF4
aF5
aF6
aF7
aF8
aF9
aF10
aF11
aF12
aF13
aF14
aF15
aa(lp246
F0
aF1
aF2
aF3
aF4
aF5
aF6
aF7
aF8
aF9
aF10
aF11
aF12
aF13
aF14
aF15
aa(lp247
F0
aF1
aF2
aF3
aF4
aF5
aF6
aF7
aF8
aF9
aF10
aF11
aF12
aF13
aF14
aF15
aa(lp248
F0
aF1
aF2
aF3
aF4
aF5
aF6
aF7
aF8
aF9
aF10
aF11
aF12
aF13
aF14
aF15
aa(lp249
F0
aF1
aF2
aF3
aF4
aF5
aF6
aF7
aF8
aF9
aF10
aF11
aF12
aF13
aF14
aF15
aa(lp250
F0
aF1
aF2
aF3
aF4
aF5
aF6
aF7
aF8
aF9
aF10
aF11
aF12
aF13
aF14
aF15
aa(lp251
F0
aF1
aF2
aF3
aF4
aF5
aF6
aF7
aF8
aF9
aF10
aF11
aF12
aF13
aF14
aF15
aa(lp252
F0
aF1
aF2
aF3
aF4
aF5
aF6
aF7
aF8
aF9
aF10
aF11
aF12
aF13
aF14
aF15
aa(lp253
F0
aF1
aF2
aF3
aF4
aF5
aF6
aF7
aF8
aF9
aF10
aF11
aF12
aF13
aF14
aF15
aa(lp254
F0
aF1
aF2
aF3
aF4
aF5
aF6
aF7
aF8
aF9
aF10
aF11
aF12
aF13
aF14
aF15
aa(lp255
F0
aF1
aF2
aF3
aF4
aF5
aF6
aF7
aF8
aF9
aF10
aF11
aF12
aF13
aF14
aF15
aa(lp256
F0
aF1
aF2
aF3
aF4
aF5
aF6
aF7
aF8
aF9
aF10
aF11
aF12
aF13
aF14
aF15
aa(lp257
F0
aF1
aF2
aF3
aF4
aF5
aF6
aF7
aF8
aF9
aF10
aF11
aF12
aF13
aF14
aF15
aa(lp258
F0
aF1
aF2
aF3
aF4
aF5
aF6
aF7
aF8
aF9
aF10
aF11
aF12
aF13
aF14
aF15
aa(lp259
F0
aF1
aF2
aF3
aF4
aF5
aF6
aF7
aF8
aF9
aF10
aF11
aF12
aF13
aF14
aF15
aa(lp260
F0
aF1
aF2
aF3
aF4
aF5
aF6
aF7
aF8
aF9
aF10
aF11
aF12
aF13
aF14
aF15
aasg56
g68
sbasg35
(lp261
g1
(g61
g3
NtRp262
(dp263
g64
I01
sg65
Nsg66
(lp264
S'unknown'
p265
aS'unknown'
p266
aS'unknown'
p267
aS'unknown'
p268
aS'unknown'
p269
aS'unknown'
p270
aS'unknown'
p271
aS'unknown'
p272
aS'unknown'
p273
aS'unknown'
p274
aS'unknown'
p275
aS'unknown'
p276
aS'unknown'
p277
aS'unknown'
p278
aS'unknown'
p279
aS'unknown'
p280
aS'unknown'
p281
aS'unknown'
p282
aS'unknown'
p283
aS'unknown'
p284
asg56
g68
sbassS'data'
p285
(lp286
(S'(get_bird_pos 20 2)'
I0
tp287
a(S'(get_bird_pos 20 4)'
I14
tp288
a(S'(get_bird_pos 20 6)'
I15
tp289
a(S'(get_bird_pos 20 7)'
I15
tp290
a(S'(get_bird_pos 20 8)'
I15
tp291
a(S'(get_bird_pos 20 10)'
I15
tp292
a(S'(get_bird_pos 20 16)'
I15
tp293
a(S'(get_bird_pos 20 17)'
I15
tp294
a(S'(get_bird_pos 20 18)'
I15
tp295
asb.