ccopy_reg
_reconstructor
p1
(cventure.unit.history
History
p2
c__builtin__
object
p3
NtRp4
(dp5
S'nameToType'
p6
(dp7
S'logscore'
p8
S'number'
p9
sS'phi'
p10
S'sp'
p11
sS'count_birds'
p12
S'sp'
p13
sS'features'
p14
S'dict'
p15
sS'move'
p16
S'sp'
p17
sS'hypers3'
p18
S'number'
p19
sS'sweep_iters'
p20
S'count'
p21
sS'observe_birds'
p22
S'sp'
p23
sS'sweep time (s)'
p24
g21
sS'hypers0'
p25
S'number'
p26
sS'hypers1'
p27
S'number'
p28
sS'hypers2'
p29
S'number'
p30
sS'get_bird_move_dist'
p31
S'sp'
p32
sS'cell_array'
p33
S'array'
p34
sS'get_bird_pos'
p35
S'sp'
p36
ssS'parameters'
p37
(dp38
S'venture_random_seed'
p39
I0
sS'cells'
p40
I16
sS'days'
p41
(lp42
I0
aI1
aI2
aI3
aI4
aI5
aI6
aI7
aI8
aI9
aI10
aI11
aI12
aI13
aI14
aI15
aI16
aI17
aI18
aI19
asS'name'
p43
S'onebird'
p44
sS'years'
p45
(lp46
I18
assS'hypers'
p47
(lp48
cnumpy.core.multiarray
scalar
p49
(cnumpy
dtype
p50
(S'f8'
I0
I1
tRp51
(I3
S'<'
NNNI-1
I-1
I0
tbS'xD\xf9\xdc\x07"\x10\xc0'
tRp52
ag49
(g51
S'|Lo\x89\xad\xcdT@'
tRp53
ag49
(g51
S'0\xd8P\xc6\xc6bI@'
tRp54
ag49
(g51
S'\xbcE\x9b0\xb6RG@'
tRp55
asS'label'
p56
S'run_from_conditional'
p57
sS'nameToSeries'
p58
(dp59
g8
(lp60
g1
(cventure.unit.history
Series
p61
g3
NtRp62
(dp63
S'hist'
p64
I01
sS'_xvals'
p65
NsS'values'
p66
(lp67
F-917.39271489527925
aF-756.33045763060113
aF-533.27811740058814
aF-461.14799049314308
aF-287.85089256457735
aF-286.6473211025725
aF-127.55626306465464
aF-28.145308310817782
aF-28.003108619488476
aF-28.307843821450835
aF-28.188543256241388
aF-28.191245106259004
aF-27.955966715219553
aF-27.801375369660505
aF-28.260781791824421
aF-28.438279626806686
aF-27.407201237722184
aF-28.625591046192138
aF-26.678696576664013
aF-26.710378810063045
asg56
S'run 0'
p68
sbasg10
(lp69
g1
(g61
g3
NtRp70
(dp71
g64
I01
sg65
Nsg66
(lp72
S'unknown'
p73
aS'unknown'
p74
aS'unknown'
p75
aS'unknown'
p76
aS'unknown'
p77
aS'unknown'
p78
aS'unknown'
p79
aS'unknown'
p80
aS'unknown'
p81
aS'unknown'
p82
aS'unknown'
p83
aS'unknown'
p84
aS'unknown'
p85
aS'unknown'
p86
aS'unknown'
p87
aS'unknown'
p88
aS'unknown'
p89
aS'unknown'
p90
aS'unknown'
p91
aS'unknown'
p92
asg56
g68
sbasg12
(lp93
g1
(g61
g3
NtRp94
(dp95
g64
I01
sg65
Nsg66
(lp96
S'unknown'
p97
aS'unknown'
p98
aS'unknown'
p99
aS'unknown'
p100
aS'unknown'
p101
aS'unknown'
p102
aS'unknown'
p103
aS'unknown'
p104
aS'unknown'
p105
aS'unknown'
p106
aS'unknown'
p107
aS'unknown'
p108
aS'unknown'
p109
aS'unknown'
p110
aS'unknown'
p111
aS'unknown'
p112
aS'unknown'
p113
aS'unknown'
p114
aS'unknown'
p115
aS'unknown'
p116
asg56
g68
sbasg14
(lp117
g1
(g61
g3
NtRp118
(dp119
g64
I01
sg65
Nsg66
(lp120
S'opaque'
p121
aS'opaque'
p122
aS'opaque'
p123
aS'opaque'
p124
aS'opaque'
p125
aS'opaque'
p126
aS'opaque'
p127
aS'opaque'
p128
aS'opaque'
p129
aS'opaque'
p130
aS'opaque'
p131
aS'opaque'
p132
aS'opaque'
p133
aS'opaque'
p134
aS'opaque'
p135
aS'opaque'
p136
aS'opaque'
p137
aS'opaque'
p138
aS'opaque'
p139
aS'opaque'
p140
asg56
g68
sbasg16
(lp141
g1
(g61
g3
NtRp142
(dp143
g64
I01
sg65
Nsg66
(lp144
S'unknown'
p145
aS'unknown'
p146
aS'unknown'
p147
aS'unknown'
p148
aS'unknown'
p149
aS'unknown'
p150
aS'unknown'
p151
aS'unknown'
p152
aS'unknown'
p153
aS'unknown'
p154
aS'unknown'
p155
aS'unknown'
p156
aS'unknown'
p157
aS'unknown'
p158
aS'unknown'
p159
aS'unknown'
p160
aS'unknown'
p161
aS'unknown'
p162
aS'unknown'
p163
aS'unknown'
p164
asg56
g68
sbasg18
(lp165
g1
(g61
g3
NtRp166
(dp167
g64
I01
sg65
Nsg66
(lp168
F114.52759778449213
aF96.704863002718369
aF90.704949725381042
aF57.119395206178481
aF52.100950679237897
aF52.717719209605548
aF48.05767707332393
aF50.25071565635858
aF49.583112711542626
aF50.122352802981538
aF48.708025100030852
aF48.974649095763368
aF46.502074980963869
aF46.313140559797091
aF46.91082001439753
aF46.196336449445141
aF45.87714545763555
aF45.966328243813393
aF46.658944155916323
aF46.646184993568994
asg56
g68
sbasg20
(lp169
g1
(g61
g3
NtRp170
(dp171
g64
I01
sg65
Nsg66
(lp172
I22
aI11
aI11
aI11
aI11
aI11
aI11
aI11
aI11
aI11
aI11
aI11
aI11
aI11
aI11
aI11
aI11
aI11
aI11
aI11
asg56
g68
sbasg22
(lp173
g1
(g61
g3
NtRp174
(dp175
g64
I01
sg65
Nsg66
(lp176
S'unknown'
p177
aS'unknown'
p178
aS'unknown'
p179
aS'unknown'
p180
aS'unknown'
p181
aS'unknown'
p182
aS'unknown'
p183
aS'unknown'
p184
aS'unknown'
p185
aS'unknown'
p186
aS'unknown'
p187
aS'unknown'
p188
aS'unknown'
p189
aS'unknown'
p190
aS'unknown'
p191
aS'unknown'
p192
aS'unknown'
p193
aS'unknown'
p194
aS'unknown'
p195
aS'unknown'
p196
asg56
g68
sbasg24
(lp197
g1
(g61
g3
NtRp198
(dp199
g64
I01
sg65
Nsg66
(lp200
F137.4695520401001
aF42.705706119537354
aF28.903533935546875
aF43.502825021743774
aF38.350555896759033
aF13.312031984329224
aF33.3574378490448
aF11.525457143783569
aF8.7873339653015137
aF10.481403827667236
aF10.573235034942627
aF11.61410117149353
aF10.851548194885254
aF8.3302679061889648
aF10.729190111160278
aF8.997934103012085
aF11.030399084091187
aF10.529997110366821
aF8.8464090824127197
aF9.1439509391784668
asg56
g68
sbasg25
(lp201
g1
(g61
g3
NtRp202
(dp203
g64
I01
sg65
Nsg66
(lp204
F-24.859388895420008
aF17.967959183413882
aF17.967959183413882
aF2.7880669531006106
aF32.79537491538224
aF20.241600306850273
aF-5.0667957643453301
aF-5.0667957643453301
aF-5.0667957643453301
aF-5.0667957643453301
aF-5.0667957643453301
aF-3.7902177440408886
aF-11.067219153599467
aF-16.144694815929249
aF-16.144694815929249
aF-17.312287970054165
aF-10.478436188380435
aF-7.5787714066255987
aF-7.5787714066255987
aF-4.0332331206455976
asg56
g68
sbasg27
(lp205
g1
(g61
g3
NtRp206
(dp207
g64
I01
sg65
Nsg66
(lp208
F190.02079870346819
aF190.02079870346819
aF165.95638726283681
aF165.95638726283681
aF89.8966378120694
aF83.480250265029042
aF83.480250265029042
aF80.094985040881454
aF78.946071238069578
aF79.120877567724108
aF79.120877567724108
aF86.116756656718223
aF84.623122900536998
aF84.623122900536998
aF84.623122900536998
aF84.623122900536998
aF84.623122900536998
aF84.623122900536998
aF83.213716849031641
aF83.213716849031641
asg56
g68
sbasg29
(lp209
g1
(g61
g3
NtRp210
(dp211
g64
I01
sg65
Nsg66
(lp212
F103.86494321449621
aF103.86494321449621
aF103.86494321449621
aF71.061080938241986
aF71.061080938241986
aF71.061080938241986
aF63.562259968872723
aF63.562259968872723
aF63.562259968872723
aF66.272770439777133
aF64.054633721624043
aF58.214198022529956
aF58.214198022529956
aF58.214198022529956
aF58.616895868879482
aF57.125913795244173
aF54.950761772154124
aF54.950761772154124
aF54.950761772154124
aF50.771691121554227
asg56
g68
sbasg31
(lp213
g1
(g61
g3
NtRp214
(dp215
g64
I01
sg65
Nsg66
(lp216
S'unknown'
p217
aS'unknown'
p218
aS'unknown'
p219
aS'unknown'
p220
aS'unknown'
p221
aS'unknown'
p222
aS'unknown'
p223
aS'unknown'
p224
aS'unknown'
p225
aS'unknown'
p226
aS'unknown'
p227
aS'unknown'
p228
aS'unknown'
p229
aS'unknown'
p230
aS'unknown'
p231
aS'unknown'
p232
aS'unknown'
p233
aS'unknown'
p234
aS'unknown'
p235
aS'unknown'
p236
asg56
g68
sbasg33
(lp237
g1
(g61
g3
NtRp238
(dp239
g64
I01
sg65
Nsg66
(lp240
(lp241
F0
aF1
aF2
aF3
aF4
aF5
aF6
aF7
aF8
aF9
aF10
aF11
aF12
aF13
aF14
aF15
aa(lp242
F0
aF1
aF2
aF3
aF4
aF5
aF6
aF7
aF8
aF9
aF10
aF11
aF12
aF13
aF14
aF15
aa(lp243
F0
aF1
aF2
aF3
aF4
aF5
aF6
aF7
aF8
aF9
aF10
aF11
aF12
aF13
aF14
aF15
aa(lp244
F0
aF1
aF2
aF3
aF4
aF5
aF6
aF7
aF8
aF9
aF10
aF11
aF12
aF13
aF14
aF15
aa(lp245
F0
aF1
aF2
aF3
aF4
aF5
aF6
aF7
aF8
aF9
aF10
aF11
aF12
aF13
aF14
aF15
aa(lp246
F0
aF1
aF2
aF3
aF4
aF5
aF6
aF7
aF8
aF9
aF10
aF11
aF12
aF13
aF14
aF15
aa(lp247
F0
aF1
aF2
aF3
aF4
aF5
aF6
aF7
aF8
aF9
aF10
aF11
aF12
aF13
aF14
aF15
aa(lp248
F0
aF1
aF2
aF3
aF4
aF5
aF6
aF7
aF8
aF9
aF10
aF11
aF12
aF13
aF14
aF15
aa(lp249
F0
aF1
aF2
aF3
aF4
aF5
aF6
aF7
aF8
aF9
aF10
aF11
aF12
aF13
aF14
aF15
aa(lp250
F0
aF1
aF2
aF3
aF4
aF5
aF6
aF7
aF8
aF9
aF10
aF11
aF12
aF13
aF14
aF15
aa(lp251
F0
aF1
aF2
aF3
aF4
aF5
aF6
aF7
aF8
aF9
aF10
aF11
aF12
aF13
aF14
aF15
aa(lp252
F0
aF1
aF2
aF3
aF4
aF5
aF6
aF7
aF8
aF9
aF10
aF11
aF12
aF13
aF14
aF15
aa(lp253
F0
aF1
aF2
aF3
aF4
aF5
aF6
aF7
aF8
aF9
aF10
aF11
aF12
aF13
aF14
aF15
aa(lp254
F0
aF1
aF2
aF3
aF4
aF5
aF6
aF7
aF8
aF9
aF10
aF11
aF12
aF13
aF14
aF15
aa(lp255
F0
aF1
aF2
aF3
aF4
aF5
aF6
aF7
aF8
aF9
aF10
aF11
aF12
aF13
aF14
aF15
aa(lp256
F0
aF1
aF2
aF3
aF4
aF5
aF6
aF7
aF8
aF9
aF10
aF11
aF12
aF13
aF14
aF15
aa(lp257
F0
aF1
aF2
aF3
aF4
aF5
aF6
aF7
aF8
aF9
aF10
aF11
aF12
aF13
aF14
aF15
aa(lp258
F0
aF1
aF2
aF3
aF4
aF5
aF6
aF7
aF8
aF9
aF10
aF11
aF12
aF13
aF14
aF15
aa(lp259
F0
aF1
aF2
aF3
aF4
aF5
aF6
aF7
aF8
aF9
aF10
aF11
aF12
aF13
aF14
aF15
aa(lp260
F0
aF1
aF2
aF3
aF4
aF5
aF6
aF7
aF8
aF9
aF10
aF11
aF12
aF13
aF14
aF15
aasg56
g68
sbasg35
(lp261
g1
(g61
g3
NtRp262
(dp263
g64
I01
sg65
Nsg66
(lp264
S'unknown'
p265
aS'unknown'
p266
aS'unknown'
p267
aS'unknown'
p268
aS'unknown'
p269
aS'unknown'
p270
aS'unknown'
p271
aS'unknown'
p272
aS'unknown'
p273
aS'unknown'
p274
aS'unknown'
p275
aS'unknown'
p276
aS'unknown'
p277
aS'unknown'
p278
aS'unknown'
p279
aS'unknown'
p280
aS'unknown'
p281
aS'unknown'
p282
aS'unknown'
p283
aS'unknown'
p284
asg56
g68
sbassS'data'
p285
(lp286
(S'(get_bird_pos 18 3)'
I7
tp287
a(S'(get_bird_pos 18 6)'
I7
tp288
a(S'(get_bird_pos 18 9)'
I15
tp289
a(S'(get_bird_pos 18 10)'
I15
tp290
a(S'(get_bird_pos 18 12)'
I15
tp291
a(S'(get_bird_pos 18 13)'
I15
tp292
a(S'(get_bird_pos 18 14)'
I15
tp293
a(S'(get_bird_pos 18 15)'
I15
tp294
a(S'(get_bird_pos 18 16)'
I15
tp295
a(S'(get_bird_pos 18 17)'
I15
tp296
a(S'(get_bird_pos 18 18)'
I15
tp297
asb.