ccopy_reg
_reconstructor
p1
(cventure.unit.history
History
p2
c__builtin__
object
p3
NtRp4
(dp5
S'nameToType'
p6
(dp7
S'logscore'
p8
S'number'
p9
sS'phi'
p10
S'sp'
p11
sS'count_birds'
p12
S'sp'
p13
sS'features'
p14
S'dict'
p15
sS'move'
p16
S'sp'
p17
sS'hypers3'
p18
S'number'
p19
sS'sweep_iters'
p20
S'count'
p21
sS'observe_birds'
p22
S'sp'
p23
sS'sweep time (s)'
p24
g21
sS'hypers0'
p25
S'number'
p26
sS'hypers1'
p27
S'number'
p28
sS'hypers2'
p29
S'number'
p30
sS'get_bird_move_dist'
p31
S'sp'
p32
sS'cell_array'
p33
S'array'
p34
sS'get_bird_pos'
p35
S'sp'
p36
ssS'parameters'
p37
(dp38
S'venture_random_seed'
p39
I0
sS'cells'
p40
I16
sS'days'
p41
(lp42
I0
aI1
aI2
aI3
aI4
aI5
aI6
aI7
aI8
aI9
aI10
aI11
aI12
aI13
aI14
aI15
aI16
aI17
aI18
aI19
asS'name'
p43
S'onebird'
p44
sS'years'
p45
(lp46
I22
assS'hypers'
p47
(lp48
cnumpy.core.multiarray
scalar
p49
(cnumpy
dtype
p50
(S'f8'
I0
I1
tRp51
(I3
S'<'
NNNI-1
I-1
I0
tbS'tER\xc9q\x84\x07@'
tRp52
ag49
(g51
S'\xf5\xd4"\xca\xd2U @'
tRp53
ag49
(g51
S'\xf9"D\x8d\x7f7\x11@'
tRp54
ag49
(g51
S'G\xe0\xa1yX\xb7\x13@'
tRp55
asS'label'
p56
S'run_from_conditional'
p57
sS'nameToSeries'
p58
(dp59
g8
(lp60
g1
(cventure.unit.history
Series
p61
g3
NtRp62
(dp63
S'hist'
p64
I01
sS'_xvals'
p65
NsS'values'
p66
(lp67
F-16.849960104074427
aF-17.203516700814216
aF-16.695089221126619
aF-15.889319498421434
aF-18.346007615567274
aF-19.504286169859888
aF-17.041415195479036
aF-16.910836367746747
aF-19.057616748065747
aF-17.141132365796651
aF-20.214273386485431
aF-18.463381344068182
aF-16.088393789184057
aF-17.176409848689968
aF-16.506830380748912
aF-15.782707951949112
aF-16.417614347553361
aF-21.321186904118854
aF-17.155671093553053
aF-18.305626292415155
asg56
S'run 0'
p68
sbag1
(g61
g3
NtRp69
(dp70
g64
I01
sg65
Nsg66
(lp71
F-17.958766124139419
aF-20.61203253719674
aF-16.644762896626329
aF-17.33700637093753
aF-16.396440856390139
aF-16.936718800784892
aF-19.287693426557162
aF-15.806289589409921
aF-19.025138643184782
aF-16.797541215994745
aF-16.660432491249207
aF-18.418855516988003
aF-16.361219645358545
aF-21.406505475293969
aF-16.646945349206355
aF-17.821166907162915
aF-16.075477073564997
aF-20.491153619505351
aF-17.09801819679894
aF-17.209949093725008
asg56
S'run 1'
p72
sbag1
(g61
g3
NtRp73
(dp74
g64
I01
sg65
Nsg66
(lp75
F-24.745332589064439
aF-24.895678752955732
aF-20.875900915235317
aF-16.708572455177258
aF-17.289156947195366
aF-16.307178476999411
aF-18.313611241962835
aF-16.804678252656942
aF-17.787008376146666
aF-19.03116274399585
aF-16.831161936906668
aF-19.768867474319201
aF-17.92331659017734
aF-19.106323172917282
aF-16.12860924390295
aF-19.899131074956216
aF-16.275402600722657
aF-16.815929911621172
aF-17.20339805549602
aF-18.871144836602522
asg56
S'run 2'
p76
sbasg10
(lp77
g1
(g61
g3
NtRp78
(dp79
g64
I01
sg65
Nsg66
(lp80
S'unknown'
p81
aS'unknown'
p82
aS'unknown'
p83
aS'unknown'
p84
aS'unknown'
p85
aS'unknown'
p86
aS'unknown'
p87
aS'unknown'
p88
aS'unknown'
p89
aS'unknown'
p90
aS'unknown'
p91
aS'unknown'
p92
aS'unknown'
p93
aS'unknown'
p94
aS'unknown'
p95
aS'unknown'
p96
aS'unknown'
p97
aS'unknown'
p98
aS'unknown'
p99
aS'unknown'
p100
asg56
g68
sbag1
(g61
g3
NtRp101
(dp102
g64
I01
sg65
Nsg66
(lp103
S'unknown'
p104
aS'unknown'
p105
aS'unknown'
p106
aS'unknown'
p107
aS'unknown'
p108
aS'unknown'
p109
aS'unknown'
p110
aS'unknown'
p111
aS'unknown'
p112
aS'unknown'
p113
aS'unknown'
p114
aS'unknown'
p115
aS'unknown'
p116
aS'unknown'
p117
aS'unknown'
p118
aS'unknown'
p119
aS'unknown'
p120
aS'unknown'
p121
aS'unknown'
p122
aS'unknown'
p123
asg56
g72
sbag1
(g61
g3
NtRp124
(dp125
g64
I01
sg65
Nsg66
(lp126
S'unknown'
p127
aS'unknown'
p128
aS'unknown'
p129
aS'unknown'
p130
aS'unknown'
p131
aS'unknown'
p132
aS'unknown'
p133
aS'unknown'
p134
aS'unknown'
p135
aS'unknown'
p136
aS'unknown'
p137
aS'unknown'
p138
aS'unknown'
p139
aS'unknown'
p140
aS'unknown'
p141
aS'unknown'
p142
aS'unknown'
p143
aS'unknown'
p144
aS'unknown'
p145
aS'unknown'
p146
asg56
g76
sbasg12
(lp147
g1
(g61
g3
NtRp148
(dp149
g64
I01
sg65
Nsg66
(lp150
S'unknown'
p151
aS'unknown'
p152
aS'unknown'
p153
aS'unknown'
p154
aS'unknown'
p155
aS'unknown'
p156
aS'unknown'
p157
aS'unknown'
p158
aS'unknown'
p159
aS'unknown'
p160
aS'unknown'
p161
aS'unknown'
p162
aS'unknown'
p163
aS'unknown'
p164
aS'unknown'
p165
aS'unknown'
p166
aS'unknown'
p167
aS'unknown'
p168
aS'unknown'
p169
aS'unknown'
p170
asg56
g68
sbag1
(g61
g3
NtRp171
(dp172
g64
I01
sg65
Nsg66
(lp173
S'unknown'
p174
aS'unknown'
p175
aS'unknown'
p176
aS'unknown'
p177
aS'unknown'
p178
aS'unknown'
p179
aS'unknown'
p180
aS'unknown'
p181
aS'unknown'
p182
aS'unknown'
p183
aS'unknown'
p184
aS'unknown'
p185
aS'unknown'
p186
aS'unknown'
p187
aS'unknown'
p188
aS'unknown'
p189
aS'unknown'
p190
aS'unknown'
p191
aS'unknown'
p192
aS'unknown'
p193
asg56
g72
sbag1
(g61
g3
NtRp194
(dp195
g64
I01
sg65
Nsg66
(lp196
S'unknown'
p197
aS'unknown'
p198
aS'unknown'
p199
aS'unknown'
p200
aS'unknown'
p201
aS'unknown'
p202
aS'unknown'
p203
aS'unknown'
p204
aS'unknown'
p205
aS'unknown'
p206
aS'unknown'
p207
aS'unknown'
p208
aS'unknown'
p209
aS'unknown'
p210
aS'unknown'
p211
aS'unknown'
p212
aS'unknown'
p213
aS'unknown'
p214
aS'unknown'
p215
aS'unknown'
p216
asg56
g76
sbasg14
(lp217
g1
(g61
g3
NtRp218
(dp219
g64
I01
sg65
Nsg66
(lp220
S'opaque'
p221
aS'opaque'
p222
aS'opaque'
p223
aS'opaque'
p224
aS'opaque'
p225
aS'opaque'
p226
aS'opaque'
p227
aS'opaque'
p228
aS'opaque'
p229
aS'opaque'
p230
aS'opaque'
p231
aS'opaque'
p232
aS'opaque'
p233
aS'opaque'
p234
aS'opaque'
p235
aS'opaque'
p236
aS'opaque'
p237
aS'opaque'
p238
aS'opaque'
p239
aS'opaque'
p240
asg56
g68
sbag1
(g61
g3
NtRp241
(dp242
g64
I01
sg65
Nsg66
(lp243
S'opaque'
p244
aS'opaque'
p245
aS'opaque'
p246
aS'opaque'
p247
aS'opaque'
p248
aS'opaque'
p249
aS'opaque'
p250
aS'opaque'
p251
aS'opaque'
p252
aS'opaque'
p253
aS'opaque'
p254
aS'opaque'
p255
aS'opaque'
p256
aS'opaque'
p257
aS'opaque'
p258
aS'opaque'
p259
aS'opaque'
p260
aS'opaque'
p261
aS'opaque'
p262
aS'opaque'
p263
asg56
g72
sbag1
(g61
g3
NtRp264
(dp265
g64
I01
sg65
Nsg66
(lp266
S'opaque'
p267
aS'opaque'
p268
aS'opaque'
p269
aS'opaque'
p270
aS'opaque'
p271
aS'opaque'
p272
aS'opaque'
p273
aS'opaque'
p274
aS'opaque'
p275
aS'opaque'
p276
aS'opaque'
p277
aS'opaque'
p278
aS'opaque'
p279
aS'opaque'
p280
aS'opaque'
p281
aS'opaque'
p282
aS'opaque'
p283
aS'opaque'
p284
aS'opaque'
p285
aS'opaque'
p286
asg56
g76
sbasg16
(lp287
g1
(g61
g3
NtRp288
(dp289
g64
I01
sg65
Nsg66
(lp290
S'unknown'
p291
aS'unknown'
p292
aS'unknown'
p293
aS'unknown'
p294
aS'unknown'
p295
aS'unknown'
p296
aS'unknown'
p297
aS'unknown'
p298
aS'unknown'
p299
aS'unknown'
p300
aS'unknown'
p301
aS'unknown'
p302
aS'unknown'
p303
aS'unknown'
p304
aS'unknown'
p305
aS'unknown'
p306
aS'unknown'
p307
aS'unknown'
p308
aS'unknown'
p309
aS'unknown'
p310
asg56
g68
sbag1
(g61
g3
NtRp311
(dp312
g64
I01
sg65
Nsg66
(lp313
S'unknown'
p314
aS'unknown'
p315
aS'unknown'
p316
aS'unknown'
p317
aS'unknown'
p318
aS'unknown'
p319
aS'unknown'
p320
aS'unknown'
p321
aS'unknown'
p322
aS'unknown'
p323
aS'unknown'
p324
aS'unknown'
p325
aS'unknown'
p326
aS'unknown'
p327
aS'unknown'
p328
aS'unknown'
p329
aS'unknown'
p330
aS'unknown'
p331
aS'unknown'
p332
aS'unknown'
p333
asg56
g72
sbag1
(g61
g3
NtRp334
(dp335
g64
I01
sg65
Nsg66
(lp336
S'unknown'
p337
aS'unknown'
p338
aS'unknown'
p339
aS'unknown'
p340
aS'unknown'
p341
aS'unknown'
p342
aS'unknown'
p343
aS'unknown'
p344
aS'unknown'
p345
aS'unknown'
p346
aS'unknown'
p347
aS'unknown'
p348
aS'unknown'
p349
aS'unknown'
p350
aS'unknown'
p351
aS'unknown'
p352
aS'unknown'
p353
aS'unknown'
p354
aS'unknown'
p355
aS'unknown'
p356
asg56
g76
sbasg18
(lp357
g1
(g61
g3
NtRp358
(dp359
g64
I01
sg65
Nsg66
(lp360
F4.0268117700508661
aF4.3290474264752055
aF5.0707592323289221
aF2.9575153951610744
aF3.7931437157894123
aF7.7395503164615764
aF5.2565552548987249
aF4.3801415414768003
aF1.3667734694211147
aF3.7578638193301614
aF6.8637568793812527
aF5.2052113648125662
aF4.1929645250807184
aF4.8457134587370154
aF4.3135627129501515
aF2.8245234885456281
aF2.7880984152986219
aF7.7342788028386735
aF5.3818501191875079
aF5.3226528000785525
asg56
g68
sbag1
(g61
g3
NtRp361
(dp362
g64
I01
sg65
Nsg66
(lp363
F3.9724625466279821
aF5.4592454647547815
aF2.4662057871839087
aF4.1793669490731515
aF2.5511001999034946
aF5.2126038976099185
aF5.052694534994064
aF2.4146156859660417
aF2.2491057452409402
aF5.1198485247427188
aF3.1503414811649568
aF5.8438624192246582
aF3.8962585072315106
aF5.9098925119784287
aF3.4588824963929685
aF5.3763935287897198
aF3.158411302241336
aF3.2361932018020303
aF5.2220624704774901
aF5.0627594458276608
asg56
g72
sbag1
(g61
g3
NtRp364
(dp365
g64
I01
sg65
Nsg66
(lp366
F12.852748610485751
aF12.893368459629656
aF7.9961553014199342
aF4.8621665642777678
aF3.803828932672495
aF2.9076458245150336
aF5.4656656472372047
aF2.0487808810553547
aF4.6264887620635928
aF1.7052482134608702
aF3.4662902813024932
aF7.6388155359729826
aF3.5203293306438717
aF7.690857989935985
aF2.8193585566562618
aF3.7181415520039272
aF4.3452474921192197
aF3.2070926216411637
aF5.2553970348889436
aF4.4017330840607096
asg56
g76
sbasg20
(lp367
g1
(g61
g3
NtRp368
(dp369
g64
I01
sg65
Nsg66
(lp370
I14
aI4
aI4
aI4
aI4
aI4
aI4
aI4
aI4
aI4
aI4
aI4
aI4
aI4
aI4
aI4
aI4
aI4
aI4
aI4
asg56
g68
sbag1
(g61
g3
NtRp371
(dp372
g64
I01
sg65
Nsg66
(lp373
I14
aI4
aI4
aI4
aI4
aI4
aI4
aI4
aI4
aI4
aI4
aI4
aI4
aI4
aI4
aI4
aI4
aI4
aI4
aI4
asg56
g72
sbag1
(g61
g3
NtRp374
(dp375
g64
I01
sg65
Nsg66
(lp376
I14
aI4
aI4
aI4
aI4
aI4
aI4
aI4
aI4
aI4
aI4
aI4
aI4
aI4
aI4
aI4
aI4
aI4
aI4
aI4
asg56
g76
sbasg22
(lp377
g1
(g61
g3
NtRp378
(dp379
g64
I01
sg65
Nsg66
(lp380
S'unknown'
p381
aS'unknown'
p382
aS'unknown'
p383
aS'unknown'
p384
aS'unknown'
p385
aS'unknown'
p386
aS'unknown'
p387
aS'unknown'
p388
aS'unknown'
p389
aS'unknown'
p390
aS'unknown'
p391
aS'unknown'
p392
aS'unknown'
p393
aS'unknown'
p394
aS'unknown'
p395
aS'unknown'
p396
aS'unknown'
p397
aS'unknown'
p398
aS'unknown'
p399
aS'unknown'
p400
asg56
g68
sbag1
(g61
g3
NtRp401
(dp402
g64
I01
sg65
Nsg66
(lp403
S'unknown'
p404
aS'unknown'
p405
aS'unknown'
p406
aS'unknown'
p407
aS'unknown'
p408
aS'unknown'
p409
aS'unknown'
p410
aS'unknown'
p411
aS'unknown'
p412
aS'unknown'
p413
aS'unknown'
p414
aS'unknown'
p415
aS'unknown'
p416
aS'unknown'
p417
aS'unknown'
p418
aS'unknown'
p419
aS'unknown'
p420
aS'unknown'
p421
aS'unknown'
p422
aS'unknown'
p423
asg56
g72
sbag1
(g61
g3
NtRp424
(dp425
g64
I01
sg65
Nsg66
(lp426
S'unknown'
p427
aS'unknown'
p428
aS'unknown'
p429
aS'unknown'
p430
aS'unknown'
p431
aS'unknown'
p432
aS'unknown'
p433
aS'unknown'
p434
aS'unknown'
p435
aS'unknown'
p436
aS'unknown'
p437
aS'unknown'
p438
aS'unknown'
p439
aS'unknown'
p440
aS'unknown'
p441
aS'unknown'
p442
aS'unknown'
p443
aS'unknown'
p444
aS'unknown'
p445
aS'unknown'
p446
asg56
g76
sbasg24
(lp447
g1
(g61
g3
NtRp448
(dp449
g64
I01
sg65
Nsg66
(lp450
F186.43262791633606
aF68.938258171081543
aF69.084323167800903
aF61.005735874176025
aF67.609477043151855
aF62.971301078796387
aF74.299237012863159
aF64.648287773132324
aF68.117515087127686
aF66.630130052566528
aF62.295653104782104
aF85.796579837799072
aF66.204746961593628
aF62.360365867614746
aF59.438179016113281
aF66.15755295753479
aF63.526363134384155
aF65.078703880310059
aF62.210328102111816
aF71.334853887557983
asg56
g68
sbag1
(g61
g3
NtRp451
(dp452
g64
I01
sg65
Nsg66
(lp453
F75.991358995437622
aF63.526643991470337
aF63.557903051376343
aF62.71323299407959
aF58.426208972930908
aF59.797899007797241
aF57.09979510307312
aF55.332451105117798
aF52.699918985366821
aF55.120095014572144
aF55.576415061950684
aF60.178317070007324
aF62.324192047119141
aF61.878672122955322
aF60.2084641456604
aF64.68268609046936
aF62.314235925674438
aF60.565772771835327
aF63.316722869873047
aF58.809864044189453
asg56
g72
sbag1
(g61
g3
NtRp454
(dp455
g64
I01
sg65
Nsg66
(lp456
F64.926173210144043
aF61.038527011871338
aF60.316707849502563
aF54.097970008850098
aF56.641378164291382
aF57.682468175888062
aF54.066677093505859
aF58.480798006057739
aF55.074887037277222
aF51.790087938308716
aF52.633178949356079
aF52.434329032897949
aF64.630645990371704
aF56.684005975723267
aF53.913259983062744
aF52.223119974136353
aF58.704883098602295
aF60.092901945114136
aF54.98415207862854
aF58.892793893814087
asg56
g76
sbasg25
(lp457
g1
(g61
g3
NtRp458
(dp459
g64
I01
sg65
Nsg66
(lp460
F0.47860533707025354
aF4.5915628121379966
aF1.1089288579813805
aF0.29608811192780748
aF2.5951923121927427
aF3.5466381724992373
aF0.54895045359182382
aF3.0635105542921899
aF0.39985298813887121
aF3.9199265186461982
aF0.036951187522053008
aF2.4042837031047939
aF0.21433370153425679
aF1.007998303390008
aF1.716234345200351
aF0.11730130408562053
aF1.0821759697396327
aF6.8493120457180936
aF0.17107488120457309
aF3.2420019814266401
asg56
g68
sbag1
(g61
g3
NtRp461
(dp462
g64
I01
sg65
Nsg66
(lp463
F4.7877948603992246
aF4.2549549468825374
aF0.089802884824804377
aF3.5930293790933288
aF1.4479019779420002
aF1.6995323766071468
aF3.1732542556646832
aF0.24029630579998626
aF1.9059019405616646
aF0.82195420432227229
aF1.8651669222087806
aF1.6628883533358472
aF0.81710497855709496
aF3.2171642790255817
aF1.42935620651615
aF4.1642681339163214
aF1.5572530425547133
aF0.31825307166893757
aF1.2742843918835216
aF3.2779900632549377
asg56
g72
sbag1
(g61
g3
NtRp464
(dp465
g64
I01
sg65
Nsg66
(lp466
F0.0030312322454665716
aF7.2493516500679753
aF0.91644680826263503
aF1.1836944443050481
aF2.1728006178587629
aF1.8752272212971797
aF1.833701779339695
aF0.32801590663668434
aF3.2414252952651634
aF1.2241314105740213
aF2.3080092471283047
aF2.2510443561431916
aF3.2162836756159834
aF0.30213957150509896
aF1.3050797496228601
aF0.37805917015629226
aF0.88593516717912424
aF1.8151349271142201
aF1.3097808095451491
aF2.2990184213882752
asg56
g76
sbasg27
(lp467
g1
(g61
g3
NtRp468
(dp469
g64
I01
sg65
Nsg66
(lp470
F3.491579423865673
aF6.3311660591953434
aF8.5300897124223596
aF5.5938834742211476
aF3.2148816773904212
aF7.6453835873757274
aF5.5983064834816361
aF3.7570159084035097
aF3.6065860655089934
aF6.6610474385784926
aF13.245303957907414
aF10.729461848687308
aF8.2915644538478617
aF4.8536110728786248
aF7.301019932300651
aF6.3981207513789897
aF3.8944753750927461
aF5.475009922888928
aF12.371406587093006
aF6.2073800238791321
asg56
g68
sbag1
(g61
g3
NtRp471
(dp472
g64
I01
sg65
Nsg66
(lp473
F7.2866197109088526
aF17.180517685389901
aF10.55646281538818
aF2.4392365582706348
aF5.398441938087748
aF6.5494672417262958
aF14.392205325382907
aF6.7453964291412323
aF9.3056268021159454
aF6.4352798794303254
aF8.9976236734477979
aF12.631800863177812
aF9.1968992058525778
aF6.0681922960058952
aF10.074818277308829
aF9.9760274087247112
aF3.7155715068475459
aF0.88602875271716752
aF5.622240778030239
aF9.3246755730830682
asg56
g72
sbag1
(g61
g3
NtRp474
(dp475
g64
I01
sg65
Nsg66
(lp476
F9.3593007910191304
aF9.7655320531802694
aF15.760052174652191
aF8.6966316677594655
aF5.9823663583843603
aF4.2354373929403613
aF14.678544078194559
aF5.2701391893765184
aF11.430515480283727
aF3.3141964159099242
aF5.3961069499357528
aF8.6203580556701382
aF7.6970740113321865
aF15.673910335670385
aF7.0921985222656456
aF3.8243436646811997
aF8.0368981853757369
aF9.740496553130237
aF8.3273831194720742
aF8.9708158689647455
asg56
g76
sbasg29
(lp477
g1
(g61
g3
NtRp478
(dp479
g64
I01
sg65
Nsg66
(lp480
F6.0583737210199224
aF1.074660266820574
aF2.5780409929766659
aF0.34832381459241479
aF0.7079900446724029
aF5.141962931047602
aF5.8930418049704407
aF3.8188916752771442
aF2.0392670455084527
aF0.64730519839027856
aF8.8988590238385576
aF4.6886633312624522
aF1.1783786238760807
aF4.0517553099433536
aF0.3587765541628779
aF2.7579472184541793
aF0.67559026173008485
aF3.0052861964769582
aF0.76406140641317843
aF6.0681986914237145
asg56
g68
sbag1
(g61
g3
NtRp481
(dp482
g64
I01
sg65
Nsg66
(lp483
F0.8216431222051529
aF1.2947133128489374
aF0.67803111531236315
aF3.4981160594794356
aF1.5353132900456643
aF4.4700127137424985
aF2.2830455723765417
aF1.468449043170017
aF0.99269748309461858
aF4.480775773023896
aF0.41423455552169025
aF3.4314665865652234
aF2.057121366138837
aF0.67740059785525786
aF0.8910067895695708
aF1.0838640638963326
aF2.7114691662412866
aF2.5709143950210844
aF5.8120070127971459
aF1.11042291206382
asg56
g72
sbag1
(g61
g3
NtRp484
(dp485
g64
I01
sg65
Nsg66
(lp486
F19.687336424420959
aF12.865414639016706
aF7.313188633641647
aF0.85944004295057752
aF4.3569079558605921
aF0.80320805283176733
aF0.26334477548921842
aF2.6539805444995124
aF0.76859516141948425
aF2.1370854467172711
aF3.3251094063665652
aF9.24683656413014
aF2.8093770470972261
aF2.5108646337406491
aF1.1082797803465456
aF0.8285069008903716
aF0.90091070865371325
aF0.44166478615283972
aF1.3851728511842483
aF5.7339709237600722
asg56
g76
sbasg31
(lp487
g1
(g61
g3
NtRp488
(dp489
g64
I01
sg65
Nsg66
(lp490
S'unknown'
p491
aS'unknown'
p492
aS'unknown'
p493
aS'unknown'
p494
aS'unknown'
p495
aS'unknown'
p496
aS'unknown'
p497
aS'unknown'
p498
aS'unknown'
p499
aS'unknown'
p500
aS'unknown'
p501
aS'unknown'
p502
aS'unknown'
p503
aS'unknown'
p504
aS'unknown'
p505
aS'unknown'
p506
aS'unknown'
p507
aS'unknown'
p508
aS'unknown'
p509
aS'unknown'
p510
asg56
g68
sbag1
(g61
g3
NtRp511
(dp512
g64
I01
sg65
Nsg66
(lp513
S'unknown'
p514
aS'unknown'
p515
aS'unknown'
p516
aS'unknown'
p517
aS'unknown'
p518
aS'unknown'
p519
aS'unknown'
p520
aS'unknown'
p521
aS'unknown'
p522
aS'unknown'
p523
aS'unknown'
p524
aS'unknown'
p525
aS'unknown'
p526
aS'unknown'
p527
aS'unknown'
p528
aS'unknown'
p529
aS'unknown'
p530
aS'unknown'
p531
aS'unknown'
p532
aS'unknown'
p533
asg56
g72
sbag1
(g61
g3
NtRp534
(dp535
g64
I01
sg65
Nsg66
(lp536
S'unknown'
p537
aS'unknown'
p538
aS'unknown'
p539
aS'unknown'
p540
aS'unknown'
p541
aS'unknown'
p542
aS'unknown'
p543
aS'unknown'
p544
aS'unknown'
p545
aS'unknown'
p546
aS'unknown'
p547
aS'unknown'
p548
aS'unknown'
p549
aS'unknown'
p550
aS'unknown'
p551
aS'unknown'
p552
aS'unknown'
p553
aS'unknown'
p554
aS'unknown'
p555
aS'unknown'
p556
asg56
g76
sbasg33
(lp557
g1
(g61
g3
NtRp558
(dp559
g64
I01
sg65
Nsg66
(lp560
(lp561
F0
aF1
aF2
aF3
aF4
aF5
aF6
aF7
aF8
aF9
aF10
aF11
aF12
aF13
aF14
aF15
aa(lp562
F0
aF1
aF2
aF3
aF4
aF5
aF6
aF7
aF8
aF9
aF10
aF11
aF12
aF13
aF14
aF15
aa(lp563
F0
aF1
aF2
aF3
aF4
aF5
aF6
aF7
aF8
aF9
aF10
aF11
aF12
aF13
aF14
aF15
aa(lp564
F0
aF1
aF2
aF3
aF4
aF5
aF6
aF7
aF8
aF9
aF10
aF11
aF12
aF13
aF14
aF15
aa(lp565
F0
aF1
aF2
aF3
aF4
aF5
aF6
aF7
aF8
aF9
aF10
aF11
aF12
aF13
aF14
aF15
aa(lp566
F0
aF1
aF2
aF3
aF4
aF5
aF6
aF7
aF8
aF9
aF10
aF11
aF12
aF13
aF14
aF15
aa(lp567
F0
aF1
aF2
aF3
aF4
aF5
aF6
aF7
aF8
aF9
aF10
aF11
aF12
aF13
aF14
aF15
aa(lp568
F0
aF1
aF2
aF3
aF4
aF5
aF6
aF7
aF8
aF9
aF10
aF11
aF12
aF13
aF14
aF15
aa(lp569
F0
aF1
aF2
aF3
aF4
aF5
aF6
aF7
aF8
aF9
aF10
aF11
aF12
aF13
aF14
aF15
aa(lp570
F0
aF1
aF2
aF3
aF4
aF5
aF6
aF7
aF8
aF9
aF10
aF11
aF12
aF13
aF14
aF15
aa(lp571
F0
aF1
aF2
aF3
aF4
aF5
aF6
aF7
aF8
aF9
aF10
aF11
aF12
aF13
aF14
aF15
aa(lp572
F0
aF1
aF2
aF3
aF4
aF5
aF6
aF7
aF8
aF9
aF10
aF11
aF12
aF13
aF14
aF15
aa(lp573
F0
aF1
aF2
aF3
aF4
aF5
aF6
aF7
aF8
aF9
aF10
aF11
aF12
aF13
aF14
aF15
aa(lp574
F0
aF1
aF2
aF3
aF4
aF5
aF6
aF7
aF8
aF9
aF10
aF11
aF12
aF13
aF14
aF15
aa(lp575
F0
aF1
aF2
aF3
aF4
aF5
aF6
aF7
aF8
aF9
aF10
aF11
aF12
aF13
aF14
aF15
aa(lp576
F0
aF1
aF2
aF3
aF4
aF5
aF6
aF7
aF8
aF9
aF10
aF11
aF12
aF13
aF14
aF15
aa(lp577
F0
aF1
aF2
aF3
aF4
aF5
aF6
aF7
aF8
aF9
aF10
aF11
aF12
aF13
aF14
aF15
aa(lp578
F0
aF1
aF2
aF3
aF4
aF5
aF6
aF7
aF8
aF9
aF10
aF11
aF12
aF13
aF14
aF15
aa(lp579
F0
aF1
aF2
aF3
aF4
aF5
aF6
aF7
aF8
aF9
aF10
aF11
aF12
aF13
aF14
aF15
aa(lp580
F0
aF1
aF2
aF3
aF4
aF5
aF6
aF7
aF8
aF9
aF10
aF11
aF12
aF13
aF14
aF15
aasg56
g68
sbag1
(g61
g3
NtRp581
(dp582
g64
I01
sg65
Nsg66
(lp583
(lp584
F0
aF1
aF2
aF3
aF4
aF5
aF6
aF7
aF8
aF9
aF10
aF11
aF12
aF13
aF14
aF15
aa(lp585
F0
aF1
aF2
aF3
aF4
aF5
aF6
aF7
aF8
aF9
aF10
aF11
aF12
aF13
aF14
aF15
aa(lp586
F0
aF1
aF2
aF3
aF4
aF5
aF6
aF7
aF8
aF9
aF10
aF11
aF12
aF13
aF14
aF15
aa(lp587
F0
aF1
aF2
aF3
aF4
aF5
aF6
aF7
aF8
aF9
aF10
aF11
aF12
aF13
aF14
aF15
aa(lp588
F0
aF1
aF2
aF3
aF4
aF5
aF6
aF7
aF8
aF9
aF10
aF11
aF12
aF13
aF14
aF15
aa(lp589
F0
aF1
aF2
aF3
aF4
aF5
aF6
aF7
aF8
aF9
aF10
aF11
aF12
aF13
aF14
aF15
aa(lp590
F0
aF1
aF2
aF3
aF4
aF5
aF6
aF7
aF8
aF9
aF10
aF11
aF12
aF13
aF14
aF15
aa(lp591
F0
aF1
aF2
aF3
aF4
aF5
aF6
aF7
aF8
aF9
aF10
aF11
aF12
aF13
aF14
aF15
aa(lp592
F0
aF1
aF2
aF3
aF4
aF5
aF6
aF7
aF8
aF9
aF10
aF11
aF12
aF13
aF14
aF15
aa(lp593
F0
aF1
aF2
aF3
aF4
aF5
aF6
aF7
aF8
aF9
aF10
aF11
aF12
aF13
aF14
aF15
aa(lp594
F0
aF1
aF2
aF3
aF4
aF5
aF6
aF7
aF8
aF9
aF10
aF11
aF12
aF13
aF14
aF15
aa(lp595
F0
aF1
aF2
aF3
aF4
aF5
aF6
aF7
aF8
aF9
aF10
aF11
aF12
aF13
aF14
aF15
aa(lp596
F0
aF1
aF2
aF3
aF4
aF5
aF6
aF7
aF8
aF9
aF10
aF11
aF12
aF13
aF14
aF15
aa(lp597
F0
aF1
aF2
aF3
aF4
aF5
aF6
aF7
aF8
aF9
aF10
aF11
aF12
aF13
aF14
aF15
aa(lp598
F0
aF1
aF2
aF3
aF4
aF5
aF6
aF7
aF8
aF9
aF10
aF11
aF12
aF13
aF14
aF15
aa(lp599
F0
aF1
aF2
aF3
aF4
aF5
aF6
aF7
aF8
aF9
aF10
aF11
aF12
aF13
aF14
aF15
aa(lp600
F0
aF1
aF2
aF3
aF4
aF5
aF6
aF7
aF8
aF9
aF10
aF11
aF12
aF13
aF14
aF15
aa(lp601
F0
aF1
aF2
aF3
aF4
aF5
aF6
aF7
aF8
aF9
aF10
aF11
aF12
aF13
aF14
aF15
aa(lp602
F0
aF1
aF2
aF3
aF4
aF5
aF6
aF7
aF8
aF9
aF10
aF11
aF12
aF13
aF14
aF15
aa(lp603
F0
aF1
aF2
aF3
aF4
aF5
aF6
aF7
aF8
aF9
aF10
aF11
aF12
aF13
aF14
aF15
aasg56
g72
sbag1
(g61
g3
NtRp604
(dp605
g64
I01
sg65
Nsg66
(lp606
(lp607
F0
aF1
aF2
aF3
aF4
aF5
aF6
aF7
aF8
aF9
aF10
aF11
aF12
aF13
aF14
aF15
aa(lp608
F0
aF1
aF2
aF3
aF4
aF5
aF6
aF7
aF8
aF9
aF10
aF11
aF12
aF13
aF14
aF15
aa(lp609
F0
aF1
aF2
aF3
aF4
aF5
aF6
aF7
aF8
aF9
aF10
aF11
aF12
aF13
aF14
aF15
aa(lp610
F0
aF1
aF2
aF3
aF4
aF5
aF6
aF7
aF8
aF9
aF10
aF11
aF12
aF13
aF14
aF15
aa(lp611
F0
aF1
aF2
aF3
aF4
aF5
aF6
aF7
aF8
aF9
aF10
aF11
aF12
aF13
aF14
aF15
aa(lp612
F0
aF1
aF2
aF3
aF4
aF5
aF6
aF7
aF8
aF9
aF10
aF11
aF12
aF13
aF14
aF15
aa(lp613
F0
aF1
aF2
aF3
aF4
aF5
aF6
aF7
aF8
aF9
aF10
aF11
aF12
aF13
aF14
aF15
aa(lp614
F0
aF1
aF2
aF3
aF4
aF5
aF6
aF7
aF8
aF9
aF10
aF11
aF12
aF13
aF14
aF15
aa(lp615
F0
aF1
aF2
aF3
aF4
aF5
aF6
aF7
aF8
aF9
aF10
aF11
aF12
aF13
aF14
aF15
aa(lp616
F0
aF1
aF2
aF3
aF4
aF5
aF6
aF7
aF8
aF9
aF10
aF11
aF12
aF13
aF14
aF15
aa(lp617
F0
aF1
aF2
aF3
aF4
aF5
aF6
aF7
aF8
aF9
aF10
aF11
aF12
aF13
aF14
aF15
aa(lp618
F0
aF1
aF2
aF3
aF4
aF5
aF6
aF7
aF8
aF9
aF10
aF11
aF12
aF13
aF14
aF15
aa(lp619
F0
aF1
aF2
aF3
aF4
aF5
aF6
aF7
aF8
aF9
aF10
aF11
aF12
aF13
aF14
aF15
aa(lp620
F0
aF1
aF2
aF3
aF4
aF5
aF6
aF7
aF8
aF9
aF10
aF11
aF12
aF13
aF14
aF15
aa(lp621
F0
aF1
aF2
aF3
aF4
aF5
aF6
aF7
aF8
aF9
aF10
aF11
aF12
aF13
aF14
aF15
aa(lp622
F0
aF1
aF2
aF3
aF4
aF5
aF6
aF7
aF8
aF9
aF10
aF11
aF12
aF13
aF14
aF15
aa(lp623
F0
aF1
aF2
aF3
aF4
aF5
aF6
aF7
aF8
aF9
aF10
aF11
aF12
aF13
aF14
aF15
aa(lp624
F0
aF1
aF2
aF3
aF4
aF5
aF6
aF7
aF8
aF9
aF10
aF11
aF12
aF13
aF14
aF15
aa(lp625
F0
aF1
aF2
aF3
aF4
aF5
aF6
aF7
aF8
aF9
aF10
aF11
aF12
aF13
aF14
aF15
aa(lp626
F0
aF1
aF2
aF3
aF4
aF5
aF6
aF7
aF8
aF9
aF10
aF11
aF12
aF13
aF14
aF15
aasg56
g76
sbasg35
(lp627
g1
(g61
g3
NtRp628
(dp629
g64
I01
sg65
Nsg66
(lp630
S'unknown'
p631
aS'unknown'
p632
aS'unknown'
p633
aS'unknown'
p634
aS'unknown'
p635
aS'unknown'
p636
aS'unknown'
p637
aS'unknown'
p638
aS'unknown'
p639
aS'unknown'
p640
aS'unknown'
p641
aS'unknown'
p642
aS'unknown'
p643
aS'unknown'
p644
aS'unknown'
p645
aS'unknown'
p646
aS'unknown'
p647
aS'unknown'
p648
aS'unknown'
p649
aS'unknown'
p650
asg56
g68
sbag1
(g61
g3
NtRp651
(dp652
g64
I01
sg65
Nsg66
(lp653
S'unknown'
p654
aS'unknown'
p655
aS'unknown'
p656
aS'unknown'
p657
aS'unknown'
p658
aS'unknown'
p659
aS'unknown'
p660
aS'unknown'
p661
aS'unknown'
p662
aS'unknown'
p663
aS'unknown'
p664
aS'unknown'
p665
aS'unknown'
p666
aS'unknown'
p667
aS'unknown'
p668
aS'unknown'
p669
aS'unknown'
p670
aS'unknown'
p671
aS'unknown'
p672
aS'unknown'
p673
asg56
g72
sbag1
(g61
g3
NtRp674
(dp675
g64
I01
sg65
Nsg66
(lp676
S'unknown'
p677
aS'unknown'
p678
aS'unknown'
p679
aS'unknown'
p680
aS'unknown'
p681
aS'unknown'
p682
aS'unknown'
p683
aS'unknown'
p684
aS'unknown'
p685
aS'unknown'
p686
aS'unknown'
p687
aS'unknown'
p688
aS'unknown'
p689
aS'unknown'
p690
aS'unknown'
p691
aS'unknown'
p692
aS'unknown'
p693
aS'unknown'
p694
aS'unknown'
p695
aS'unknown'
p696
asg56
g76
sbassS'data'
p697
(lp698
(S'(move 22 1 0)'
I11
tp699
a(S'(move 22 3 11)'
I14
tp700
a(S'(move 22 4 14)'
I15
tp701
a(S'(move 22 7 15)'
I15
tp702
a(S'(move 22 8 15)'
I15
tp703
a(S'(move 22 9 15)'
I15
tp704
a(S'(move 22 12 15)'
I15
tp705
a(S'(move 22 15 15)'
I15
tp706
a(S'(move 22 16 15)'
I15
tp707
a(S'(move 22 18 15)'
I15
tp708
asb.