ccopy_reg
_reconstructor
p1
(cventure.unit.history
History
p2
c__builtin__
object
p3
NtRp4
(dp5
S'nameToType'
p6
(dp7
S'logscore'
p8
S'number'
p9
sS'phi'
p10
S'sp'
p11
sS'count_birds'
p12
S'sp'
p13
sS'features'
p14
S'dict'
p15
sS'move'
p16
S'sp'
p17
sS'hypers3'
p18
S'number'
p19
sS'sweep_iters'
p20
S'count'
p21
sS'observe_birds'
p22
S'sp'
p23
sS'sweep time (s)'
p24
g21
sS'hypers0'
p25
S'number'
p26
sS'hypers1'
p27
S'number'
p28
sS'hypers2'
p29
S'number'
p30
sS'get_bird_move_dist'
p31
S'sp'
p32
sS'cell_array'
p33
S'array'
p34
sS'get_bird_pos'
p35
S'sp'
p36
ssS'parameters'
p37
(dp38
S'venture_random_seed'
p39
I0
sS'cells'
p40
I16
sS'days'
p41
(lp42
I0
aI1
aI2
aI3
aI4
aI5
aI6
aI7
aI8
aI9
aI10
aI11
aI12
aI13
aI14
aI15
aI16
aI17
aI18
aI19
asS'name'
p43
S'onebird'
p44
sS'years'
p45
(lp46
I29
assS'hypers'
p47
(lp48
cnumpy.core.multiarray
scalar
p49
(cnumpy
dtype
p50
(S'f8'
I0
I1
tRp51
(I3
S'<'
NNNI-1
I-1
I0
tbS'\x91\x18B\xe7\x13\x10\x1e@'
tRp52
ag49
(g51
S'\x15\xab\n2\xe2\xc07@'
tRp53
ag49
(g51
S'-l}\xd2\x91\xbd\x1d@'
tRp54
ag49
(g51
S'ipQ\x06<.,@'
tRp55
asS'label'
p56
S'run_from_conditional'
p57
sS'nameToSeries'
p58
(dp59
g8
(lp60
g1
(cventure.unit.history
Series
p61
g3
NtRp62
(dp63
S'hist'
p64
I01
sS'_xvals'
p65
NsS'values'
p66
(lp67
F-15.667385573499081
aF-16.132838801525896
aF-14.852281131783565
aF-15.104249184837983
aF-17.060515416134979
aF-17.156560057365887
aF-15.449714569348593
aF-14.940396966277222
aF-17.531010261604127
aF-14.800882411957557
aF-14.607336301160775
aF-15.244010431097538
aF-15.519470396502282
aF-16.012169430461395
aF-14.577156221799324
aF-14.655019218586927
aF-15.754313429316898
aF-15.284343992755073
aF-16.246548381298577
aF-15.446450801091386
asg56
S'run 0'
p68
sbag1
(g61
g3
NtRp69
(dp70
g64
I01
sg65
Nsg66
(lp71
F-15.086634779490849
aF-16.243471721203516
aF-16.567065727246696
aF-16.149955878985907
aF-17.802817031970942
aF-16.686447339492727
aF-16.554451836954399
aF-15.091959516766943
aF-18.398363908036799
aF-20.316208385687119
aF-16.72661404307863
aF-17.213817759307016
aF-16.50776095988267
aF-16.22643410574268
aF-17.275588079839224
aF-15.292075376987667
aF-16.77338337112376
aF-16.51903878348751
aF-18.895864601184403
aF-16.264932048105337
asg56
S'run 1'
p72
sbag1
(g61
g3
NtRp73
(dp74
g64
I01
sg65
Nsg66
(lp75
F-16.251628457684841
aF-17.906803930293023
aF-16.063238355769467
aF-16.00510528193217
aF-16.670554198757131
aF-15.65050349984455
aF-15.771838784981572
aF-14.948684613122909
aF-14.501910842715574
aF-15.591385880131723
aF-15.597722629091146
aF-15.595680684801501
aF-14.49869727582513
aF-15.672510923479276
aF-15.305791178015944
aF-15.399141548577079
aF-17.875445976330571
aF-16.55630967507129
aF-14.827707700036566
aF-15.843009657261639
asg56
S'run 2'
p76
sbasg10
(lp77
g1
(g61
g3
NtRp78
(dp79
g64
I01
sg65
Nsg66
(lp80
S'unknown'
p81
aS'unknown'
p82
aS'unknown'
p83
aS'unknown'
p84
aS'unknown'
p85
aS'unknown'
p86
aS'unknown'
p87
aS'unknown'
p88
aS'unknown'
p89
aS'unknown'
p90
aS'unknown'
p91
aS'unknown'
p92
aS'unknown'
p93
aS'unknown'
p94
aS'unknown'
p95
aS'unknown'
p96
aS'unknown'
p97
aS'unknown'
p98
aS'unknown'
p99
aS'unknown'
p100
asg56
g68
sbag1
(g61
g3
NtRp101
(dp102
g64
I01
sg65
Nsg66
(lp103
S'unknown'
p104
aS'unknown'
p105
aS'unknown'
p106
aS'unknown'
p107
aS'unknown'
p108
aS'unknown'
p109
aS'unknown'
p110
aS'unknown'
p111
aS'unknown'
p112
aS'unknown'
p113
aS'unknown'
p114
aS'unknown'
p115
aS'unknown'
p116
aS'unknown'
p117
aS'unknown'
p118
aS'unknown'
p119
aS'unknown'
p120
aS'unknown'
p121
aS'unknown'
p122
aS'unknown'
p123
asg56
g72
sbag1
(g61
g3
NtRp124
(dp125
g64
I01
sg65
Nsg66
(lp126
S'unknown'
p127
aS'unknown'
p128
aS'unknown'
p129
aS'unknown'
p130
aS'unknown'
p131
aS'unknown'
p132
aS'unknown'
p133
aS'unknown'
p134
aS'unknown'
p135
aS'unknown'
p136
aS'unknown'
p137
aS'unknown'
p138
aS'unknown'
p139
aS'unknown'
p140
aS'unknown'
p141
aS'unknown'
p142
aS'unknown'
p143
aS'unknown'
p144
aS'unknown'
p145
aS'unknown'
p146
asg56
g76
sbasg12
(lp147
g1
(g61
g3
NtRp148
(dp149
g64
I01
sg65
Nsg66
(lp150
S'unknown'
p151
aS'unknown'
p152
aS'unknown'
p153
aS'unknown'
p154
aS'unknown'
p155
aS'unknown'
p156
aS'unknown'
p157
aS'unknown'
p158
aS'unknown'
p159
aS'unknown'
p160
aS'unknown'
p161
aS'unknown'
p162
aS'unknown'
p163
aS'unknown'
p164
aS'unknown'
p165
aS'unknown'
p166
aS'unknown'
p167
aS'unknown'
p168
aS'unknown'
p169
aS'unknown'
p170
asg56
g68
sbag1
(g61
g3
NtRp171
(dp172
g64
I01
sg65
Nsg66
(lp173
S'unknown'
p174
aS'unknown'
p175
aS'unknown'
p176
aS'unknown'
p177
aS'unknown'
p178
aS'unknown'
p179
aS'unknown'
p180
aS'unknown'
p181
aS'unknown'
p182
aS'unknown'
p183
aS'unknown'
p184
aS'unknown'
p185
aS'unknown'
p186
aS'unknown'
p187
aS'unknown'
p188
aS'unknown'
p189
aS'unknown'
p190
aS'unknown'
p191
aS'unknown'
p192
aS'unknown'
p193
asg56
g72
sbag1
(g61
g3
NtRp194
(dp195
g64
I01
sg65
Nsg66
(lp196
S'unknown'
p197
aS'unknown'
p198
aS'unknown'
p199
aS'unknown'
p200
aS'unknown'
p201
aS'unknown'
p202
aS'unknown'
p203
aS'unknown'
p204
aS'unknown'
p205
aS'unknown'
p206
aS'unknown'
p207
aS'unknown'
p208
aS'unknown'
p209
aS'unknown'
p210
aS'unknown'
p211
aS'unknown'
p212
aS'unknown'
p213
aS'unknown'
p214
aS'unknown'
p215
aS'unknown'
p216
asg56
g76
sbasg14
(lp217
g1
(g61
g3
NtRp218
(dp219
g64
I01
sg65
Nsg66
(lp220
S'opaque'
p221
aS'opaque'
p222
aS'opaque'
p223
aS'opaque'
p224
aS'opaque'
p225
aS'opaque'
p226
aS'opaque'
p227
aS'opaque'
p228
aS'opaque'
p229
aS'opaque'
p230
aS'opaque'
p231
aS'opaque'
p232
aS'opaque'
p233
aS'opaque'
p234
aS'opaque'
p235
aS'opaque'
p236
aS'opaque'
p237
aS'opaque'
p238
aS'opaque'
p239
aS'opaque'
p240
asg56
g68
sbag1
(g61
g3
NtRp241
(dp242
g64
I01
sg65
Nsg66
(lp243
S'opaque'
p244
aS'opaque'
p245
aS'opaque'
p246
aS'opaque'
p247
aS'opaque'
p248
aS'opaque'
p249
aS'opaque'
p250
aS'opaque'
p251
aS'opaque'
p252
aS'opaque'
p253
aS'opaque'
p254
aS'opaque'
p255
aS'opaque'
p256
aS'opaque'
p257
aS'opaque'
p258
aS'opaque'
p259
aS'opaque'
p260
aS'opaque'
p261
aS'opaque'
p262
aS'opaque'
p263
asg56
g72
sbag1
(g61
g3
NtRp264
(dp265
g64
I01
sg65
Nsg66
(lp266
S'opaque'
p267
aS'opaque'
p268
aS'opaque'
p269
aS'opaque'
p270
aS'opaque'
p271
aS'opaque'
p272
aS'opaque'
p273
aS'opaque'
p274
aS'opaque'
p275
aS'opaque'
p276
aS'opaque'
p277
aS'opaque'
p278
aS'opaque'
p279
aS'opaque'
p280
aS'opaque'
p281
aS'opaque'
p282
aS'opaque'
p283
aS'opaque'
p284
aS'opaque'
p285
aS'opaque'
p286
asg56
g76
sbasg16
(lp287
g1
(g61
g3
NtRp288
(dp289
g64
I01
sg65
Nsg66
(lp290
S'unknown'
p291
aS'unknown'
p292
aS'unknown'
p293
aS'unknown'
p294
aS'unknown'
p295
aS'unknown'
p296
aS'unknown'
p297
aS'unknown'
p298
aS'unknown'
p299
aS'unknown'
p300
aS'unknown'
p301
aS'unknown'
p302
aS'unknown'
p303
aS'unknown'
p304
aS'unknown'
p305
aS'unknown'
p306
aS'unknown'
p307
aS'unknown'
p308
aS'unknown'
p309
aS'unknown'
p310
asg56
g68
sbag1
(g61
g3
NtRp311
(dp312
g64
I01
sg65
Nsg66
(lp313
S'unknown'
p314
aS'unknown'
p315
aS'unknown'
p316
aS'unknown'
p317
aS'unknown'
p318
aS'unknown'
p319
aS'unknown'
p320
aS'unknown'
p321
aS'unknown'
p322
aS'unknown'
p323
aS'unknown'
p324
aS'unknown'
p325
aS'unknown'
p326
aS'unknown'
p327
aS'unknown'
p328
aS'unknown'
p329
aS'unknown'
p330
aS'unknown'
p331
aS'unknown'
p332
aS'unknown'
p333
asg56
g72
sbag1
(g61
g3
NtRp334
(dp335
g64
I01
sg65
Nsg66
(lp336
S'unknown'
p337
aS'unknown'
p338
aS'unknown'
p339
aS'unknown'
p340
aS'unknown'
p341
aS'unknown'
p342
aS'unknown'
p343
aS'unknown'
p344
aS'unknown'
p345
aS'unknown'
p346
aS'unknown'
p347
aS'unknown'
p348
aS'unknown'
p349
aS'unknown'
p350
aS'unknown'
p351
aS'unknown'
p352
aS'unknown'
p353
aS'unknown'
p354
aS'unknown'
p355
aS'unknown'
p356
asg56
g76
sbasg18
(lp357
g1
(g61
g3
NtRp358
(dp359
g64
I01
sg65
Nsg66
(lp360
F12.875623696444398
aF14.703458006265173
aF10.549405072585241
aF12.335128490204889
aF16.263484194194898
aF18.607658167869296
aF13.197321696998033
aF9.6628869690378032
aF12.59731733336379
aF9.4417711552706471
aF8.3280693266407315
aF6.0367703280742671
aF7.7985301619700005
aF13.476559092612771
aF8.8951050894395767
aF11.590769598406306
aF15.324262813595023
aF14.473805178754759
aF11.634998358392348
aF9.4906550752810563
asg56
g68
sbag1
(g61
g3
NtRp361
(dp362
g64
I01
sg65
Nsg66
(lp363
F13.165839921040975
aF12.887940240456686
aF14.418878790246559
aF18.017756565837249
aF15.534425495625943
aF17.082122195709172
aF13.304722283642294
aF14.160678031280604
aF16.0668031417697
aF23.481978649089541
aF18.107970794456442
aF18.624363237089799
aF19.708397397648856
aF13.966380219494027
aF11.359952335636862
aF14.035231185003841
aF18.523948739470896
aF17.576588894668241
aF21.680639519950383
aF15.784765114387167
asg56
g72
sbag1
(g61
g3
NtRp364
(dp365
g64
I01
sg65
Nsg66
(lp366
F8.4567601422492871
aF12.981126672767235
aF14.96687353046987
aF14.269849431128094
aF12.513541628762702
aF15.780938273802006
aF11.849951041909847
aF12.674481989286441
aF10.579974993893986
aF13.233726052508146
aF16.303620461273404
aF9.74314712572248
aF10.05035348889372
aF9.204022264758164
aF9.4140390962809715
aF13.756287429763621
aF17.35889545788217
aF18.202273451875513
aF12.56283932357567
aF16.995484916231483
asg56
g76
sbasg20
(lp367
g1
(g61
g3
NtRp368
(dp369
g64
I01
sg65
Nsg66
(lp370
I17
aI4
aI4
aI4
aI4
aI4
aI4
aI4
aI4
aI4
aI4
aI4
aI4
aI4
aI4
aI4
aI4
aI4
aI4
aI4
asg56
g68
sbag1
(g61
g3
NtRp371
(dp372
g64
I01
sg65
Nsg66
(lp373
I17
aI4
aI4
aI4
aI4
aI4
aI4
aI4
aI4
aI4
aI4
aI4
aI4
aI4
aI4
aI4
aI4
aI4
aI4
aI4
asg56
g72
sbag1
(g61
g3
NtRp374
(dp375
g64
I01
sg65
Nsg66
(lp376
I17
aI4
aI4
aI4
aI4
aI4
aI4
aI4
aI4
aI4
aI4
aI4
aI4
aI4
aI4
aI4
aI4
aI4
aI4
aI4
asg56
g76
sbasg22
(lp377
g1
(g61
g3
NtRp378
(dp379
g64
I01
sg65
Nsg66
(lp380
S'unknown'
p381
aS'unknown'
p382
aS'unknown'
p383
aS'unknown'
p384
aS'unknown'
p385
aS'unknown'
p386
aS'unknown'
p387
aS'unknown'
p388
aS'unknown'
p389
aS'unknown'
p390
aS'unknown'
p391
aS'unknown'
p392
aS'unknown'
p393
aS'unknown'
p394
aS'unknown'
p395
aS'unknown'
p396
aS'unknown'
p397
aS'unknown'
p398
aS'unknown'
p399
aS'unknown'
p400
asg56
g68
sbag1
(g61
g3
NtRp401
(dp402
g64
I01
sg65
Nsg66
(lp403
S'unknown'
p404
aS'unknown'
p405
aS'unknown'
p406
aS'unknown'
p407
aS'unknown'
p408
aS'unknown'
p409
aS'unknown'
p410
aS'unknown'
p411
aS'unknown'
p412
aS'unknown'
p413
aS'unknown'
p414
aS'unknown'
p415
aS'unknown'
p416
aS'unknown'
p417
aS'unknown'
p418
aS'unknown'
p419
aS'unknown'
p420
aS'unknown'
p421
aS'unknown'
p422
aS'unknown'
p423
asg56
g72
sbag1
(g61
g3
NtRp424
(dp425
g64
I01
sg65
Nsg66
(lp426
S'unknown'
p427
aS'unknown'
p428
aS'unknown'
p429
aS'unknown'
p430
aS'unknown'
p431
aS'unknown'
p432
aS'unknown'
p433
aS'unknown'
p434
aS'unknown'
p435
aS'unknown'
p436
aS'unknown'
p437
aS'unknown'
p438
aS'unknown'
p439
aS'unknown'
p440
aS'unknown'
p441
aS'unknown'
p442
aS'unknown'
p443
aS'unknown'
p444
aS'unknown'
p445
aS'unknown'
p446
asg56
g76
sbasg24
(lp447
g1
(g61
g3
NtRp448
(dp449
g64
I01
sg65
Nsg66
(lp450
F88.207391023635864
aF93.420986890792847
aF101.05658578872681
aF91.713245868682861
aF97.016359090805054
aF96.165319919586182
aF114.23764801025391
aF89.250937938690186
aF104.61255192756653
aF96.40195107460022
aF90.529821157455444
aF87.439925909042358
aF83.750469923019409
aF94.525238990783691
aF84.640598058700562
aF90.090291976928711
aF106.63038992881775
aF93.492347002029419
aF97.87412691116333
aF95.65516996383667
asg56
g68
sbag1
(g61
g3
NtRp451
(dp452
g64
I01
sg65
Nsg66
(lp453
F94.742256879806519
aF91.869430065155029
aF106.14681506156921
aF98.09018611907959
aF107.2533540725708
aF105.53360795974731
aF107.93106508255005
aF109.02654790878296
aF100.49057102203369
aF102.20935797691345
aF107.40157890319824
aF88.218648910522461
aF100.93615007400513
aF97.807083129882812
aF101.57883405685425
aF92.33301305770874
aF109.1422131061554
aF106.04384517669678
aF109.55619096755981
aF102.31951403617859
asg56
g72
sbag1
(g61
g3
NtRp454
(dp455
g64
I01
sg65
Nsg66
(lp456
F77.301188945770264
aF72.882477998733521
aF81.354878187179565
aF77.387572050094604
aF85.614164113998413
aF89.429158210754395
aF79.460684061050415
aF92.334617853164673
aF72.423414945602417
aF64.204576969146729
aF71.619919061660767
aF68.617192029953003
aF62.232388019561768
aF63.102131128311157
aF70.057940006256104
aF74.637452125549316
aF70.700996875762939
aF80.679342985153198
aF69.5676109790802
aF74.648814916610718
asg56
g76
sbasg25
(lp457
g1
(g61
g3
NtRp458
(dp459
g64
I01
sg65
Nsg66
(lp460
F16.890621136443684
aF14.767947858933354
aF6.0897363546811381
aF12.434317093633297
aF6.3713833331860403
aF15.697180772647471
aF7.2638635815328847
aF6.5977742460765487
aF4.0208290301847232
aF5.2909071843101323
aF4.5109899240124873
aF2.1815487590239768
aF2.6430439356858262
aF14.014738049433348
aF9.7684976141758977
aF7.2893465647290299
aF12.640470800590094
aF8.552275066394154
aF3.5607838534689202
aF1.3662256584687613
asg56
g68
sbag1
(g61
g3
NtRp461
(dp462
g64
I01
sg65
Nsg66
(lp463
F10.467392906083141
aF8.4339520992733945
aF13.257114107399829
aF14.512526913880308
aF1.7030309810912958
aF7.7560219169041709
aF5.6532698140028561
aF9.8321058879621024
aF0.42451008674249391
aF15.440659701095683
aF11.820706176614213
aF19.509661031324757
aF13.386766438540441
aF2.5992757058054181
aF4.1198091368490015
aF6.3518002605817649
aF13.463747064098145
aF9.0148142842093328
aF16.640402992958553
aF10.115077199188347
asg56
g72
sbag1
(g61
g3
NtRp464
(dp465
g64
I01
sg65
Nsg66
(lp466
F12.513142626921949
aF10.940529662924703
aF14.7512768570286
aF14.135321086242087
aF4.9860298139437909
aF12.783972680232718
aF6.3882961979337569
aF5.922896608154133
aF8.6650212186067694
aF8.013345753689455
aF12.439360661892177
aF8.341159221883288
aF7.2216627134183398
aF5.5232339043532264
aF2.8512975369476581
aF8.903356970347275
aF17.666675132294099
aF10.975024676213529
aF6.6278368690976617
aF11.065799918133614
asg56
g76
sbasg27
(lp467
g1
(g61
g3
NtRp468
(dp469
g64
I01
sg65
Nsg66
(lp470
F10.236438453267521
aF17.974230018310696
aF15.39428395432634
aF13.109858651501291
aF27.084772156925368
aF28.097851115794725
aF22.969762872663793
aF12.240033945112025
aF22.612200928121041
aF13.249128209530987
aF14.232780663977994
aF11.997266859430084
aF16.150014912252399
aF13.413385643345752
aF9.0893066880312983
aF18.354628754526146
aF19.663021585733141
aF23.189835728781961
aF23.179864584005237
aF18.923981070175955
asg56
g68
sbag1
(g61
g3
NtRp471
(dp472
g64
I01
sg65
Nsg66
(lp473
F16.541875940316459
aF17.512029603887136
aF21.796040381369899
aF25.203382728064035
aF29.181607979944484
aF26.326195825749252
aF19.662541522597827
aF19.661302923515869
aF33.54728794451178
aF32.18218298426121
aF24.526786431320126
aF23.815941626559102
aF29.146983854033785
aF25.092769654404535
aF25.3520206768831
aF24.215125351596356
aF25.025375274628516
aF28.793223505956931
aF36.50258733168851
aF27.246114137442504
asg56
g72
sbag1
(g61
g3
NtRp474
(dp475
g64
I01
sg65
Nsg66
(lp476
F5.3460193209208118
aF12.924308692834988
aF15.941077719960241
aF14.597144163566767
aF26.316970168448442
aF21.313147297443287
aF21.147837852813257
aF21.516338785047139
aF14.650829765025986
aF20.973099943727714
aF21.699244022809779
aF15.319646113402992
aF13.659399745193589
aF11.738395668180281
aF18.836274894732604
aF22.689483193665072
aF18.436971916479706
aF26.064347595692908
aF20.611552263395225
aF25.09025919951435
asg56
g76
sbasg29
(lp477
g1
(g61
g3
NtRp478
(dp479
g64
I01
sg65
Nsg66
(lp480
F2.5116961048766209
aF11.061120322217185
aF6.6108304684539059
aF5.5311632559723627
aF0.84147327033146624
aF9.1256342202737084
aF6.210560399169081
aF3.9077033958421867
aF16.619449986340253
aF4.447636695306791
aF4.2918356185666751
aF4.9653112864639111
aF7.6476612605792882
aF7.2592642432408372
aF2.9858539731904856
aF6.45359577588912
aF9.1553625464423973
aF5.0171274005227184
aF12.188971003049454
aF4.2779307412061565
asg56
g68
sbag1
(g61
g3
NtRp481
(dp482
g64
I01
sg65
Nsg66
(lp483
F5.566462930044608
aF11.08967837370998
aF9.3526741871024832
aF8.5635813362481841
aF11.755540434130527
aF8.0911313140156018
aF3.6974092194449755
aF3.5109924524958611
aF13.157832887528041
aF22.447088897511783
aF6.093000071798528
aF7.4846708252846845
aF7.5548293873405621
aF5.8872799218890925
aF10.728504083892989
aF6.8284135729750304
aF10.661719222829575
aF11.642433921697432
aF15.136686382477684
aF10.160720069818076
asg56
g72
sbag1
(g61
g3
NtRp484
(dp485
g64
I01
sg65
Nsg66
(lp486
F1.4908244345014761
aF4.7308597335157145
aF7.5906867585722289
aF3.2179269413286402
aF11.608343341793205
aF8.9339900971230186
aF11.885863573430692
aF5.9206035448176095
aF3.6789474792247225
aF2.8886885840237575
aF5.9065583718490773
aF5.3723578404185339
aF5.6604339433207258
aF2.8306209795097863
aF7.3817599536555587
aF6.8993351779067549
aF0.27313742925842038
aF7.4200480284435812
aF5.3608518975065955
aF7.8667289294195299
asg56
g76
sbasg31
(lp487
g1
(g61
g3
NtRp488
(dp489
g64
I01
sg65
Nsg66
(lp490
S'unknown'
p491
aS'unknown'
p492
aS'unknown'
p493
aS'unknown'
p494
aS'unknown'
p495
aS'unknown'
p496
aS'unknown'
p497
aS'unknown'
p498
aS'unknown'
p499
aS'unknown'
p500
aS'unknown'
p501
aS'unknown'
p502
aS'unknown'
p503
aS'unknown'
p504
aS'unknown'
p505
aS'unknown'
p506
aS'unknown'
p507
aS'unknown'
p508
aS'unknown'
p509
aS'unknown'
p510
asg56
g68
sbag1
(g61
g3
NtRp511
(dp512
g64
I01
sg65
Nsg66
(lp513
S'unknown'
p514
aS'unknown'
p515
aS'unknown'
p516
aS'unknown'
p517
aS'unknown'
p518
aS'unknown'
p519
aS'unknown'
p520
aS'unknown'
p521
aS'unknown'
p522
aS'unknown'
p523
aS'unknown'
p524
aS'unknown'
p525
aS'unknown'
p526
aS'unknown'
p527
aS'unknown'
p528
aS'unknown'
p529
aS'unknown'
p530
aS'unknown'
p531
aS'unknown'
p532
aS'unknown'
p533
asg56
g72
sbag1
(g61
g3
NtRp534
(dp535
g64
I01
sg65
Nsg66
(lp536
S'unknown'
p537
aS'unknown'
p538
aS'unknown'
p539
aS'unknown'
p540
aS'unknown'
p541
aS'unknown'
p542
aS'unknown'
p543
aS'unknown'
p544
aS'unknown'
p545
aS'unknown'
p546
aS'unknown'
p547
aS'unknown'
p548
aS'unknown'
p549
aS'unknown'
p550
aS'unknown'
p551
aS'unknown'
p552
aS'unknown'
p553
aS'unknown'
p554
aS'unknown'
p555
aS'unknown'
p556
asg56
g76
sbasg33
(lp557
g1
(g61
g3
NtRp558
(dp559
g64
I01
sg65
Nsg66
(lp560
(lp561
F0
aF1
aF2
aF3
aF4
aF5
aF6
aF7
aF8
aF9
aF10
aF11
aF12
aF13
aF14
aF15
aa(lp562
F0
aF1
aF2
aF3
aF4
aF5
aF6
aF7
aF8
aF9
aF10
aF11
aF12
aF13
aF14
aF15
aa(lp563
F0
aF1
aF2
aF3
aF4
aF5
aF6
aF7
aF8
aF9
aF10
aF11
aF12
aF13
aF14
aF15
aa(lp564
F0
aF1
aF2
aF3
aF4
aF5
aF6
aF7
aF8
aF9
aF10
aF11
aF12
aF13
aF14
aF15
aa(lp565
F0
aF1
aF2
aF3
aF4
aF5
aF6
aF7
aF8
aF9
aF10
aF11
aF12
aF13
aF14
aF15
aa(lp566
F0
aF1
aF2
aF3
aF4
aF5
aF6
aF7
aF8
aF9
aF10
aF11
aF12
aF13
aF14
aF15
aa(lp567
F0
aF1
aF2
aF3
aF4
aF5
aF6
aF7
aF8
aF9
aF10
aF11
aF12
aF13
aF14
aF15
aa(lp568
F0
aF1
aF2
aF3
aF4
aF5
aF6
aF7
aF8
aF9
aF10
aF11
aF12
aF13
aF14
aF15
aa(lp569
F0
aF1
aF2
aF3
aF4
aF5
aF6
aF7
aF8
aF9
aF10
aF11
aF12
aF13
aF14
aF15
aa(lp570
F0
aF1
aF2
aF3
aF4
aF5
aF6
aF7
aF8
aF9
aF10
aF11
aF12
aF13
aF14
aF15
aa(lp571
F0
aF1
aF2
aF3
aF4
aF5
aF6
aF7
aF8
aF9
aF10
aF11
aF12
aF13
aF14
aF15
aa(lp572
F0
aF1
aF2
aF3
aF4
aF5
aF6
aF7
aF8
aF9
aF10
aF11
aF12
aF13
aF14
aF15
aa(lp573
F0
aF1
aF2
aF3
aF4
aF5
aF6
aF7
aF8
aF9
aF10
aF11
aF12
aF13
aF14
aF15
aa(lp574
F0
aF1
aF2
aF3
aF4
aF5
aF6
aF7
aF8
aF9
aF10
aF11
aF12
aF13
aF14
aF15
aa(lp575
F0
aF1
aF2
aF3
aF4
aF5
aF6
aF7
aF8
aF9
aF10
aF11
aF12
aF13
aF14
aF15
aa(lp576
F0
aF1
aF2
aF3
aF4
aF5
aF6
aF7
aF8
aF9
aF10
aF11
aF12
aF13
aF14
aF15
aa(lp577
F0
aF1
aF2
aF3
aF4
aF5
aF6
aF7
aF8
aF9
aF10
aF11
aF12
aF13
aF14
aF15
aa(lp578
F0
aF1
aF2
aF3
aF4
aF5
aF6
aF7
aF8
aF9
aF10
aF11
aF12
aF13
aF14
aF15
aa(lp579
F0
aF1
aF2
aF3
aF4
aF5
aF6
aF7
aF8
aF9
aF10
aF11
aF12
aF13
aF14
aF15
aa(lp580
F0
aF1
aF2
aF3
aF4
aF5
aF6
aF7
aF8
aF9
aF10
aF11
aF12
aF13
aF14
aF15
aasg56
g68
sbag1
(g61
g3
NtRp581
(dp582
g64
I01
sg65
Nsg66
(lp583
(lp584
F0
aF1
aF2
aF3
aF4
aF5
aF6
aF7
aF8
aF9
aF10
aF11
aF12
aF13
aF14
aF15
aa(lp585
F0
aF1
aF2
aF3
aF4
aF5
aF6
aF7
aF8
aF9
aF10
aF11
aF12
aF13
aF14
aF15
aa(lp586
F0
aF1
aF2
aF3
aF4
aF5
aF6
aF7
aF8
aF9
aF10
aF11
aF12
aF13
aF14
aF15
aa(lp587
F0
aF1
aF2
aF3
aF4
aF5
aF6
aF7
aF8
aF9
aF10
aF11
aF12
aF13
aF14
aF15
aa(lp588
F0
aF1
aF2
aF3
aF4
aF5
aF6
aF7
aF8
aF9
aF10
aF11
aF12
aF13
aF14
aF15
aa(lp589
F0
aF1
aF2
aF3
aF4
aF5
aF6
aF7
aF8
aF9
aF10
aF11
aF12
aF13
aF14
aF15
aa(lp590
F0
aF1
aF2
aF3
aF4
aF5
aF6
aF7
aF8
aF9
aF10
aF11
aF12
aF13
aF14
aF15
aa(lp591
F0
aF1
aF2
aF3
aF4
aF5
aF6
aF7
aF8
aF9
aF10
aF11
aF12
aF13
aF14
aF15
aa(lp592
F0
aF1
aF2
aF3
aF4
aF5
aF6
aF7
aF8
aF9
aF10
aF11
aF12
aF13
aF14
aF15
aa(lp593
F0
aF1
aF2
aF3
aF4
aF5
aF6
aF7
aF8
aF9
aF10
aF11
aF12
aF13
aF14
aF15
aa(lp594
F0
aF1
aF2
aF3
aF4
aF5
aF6
aF7
aF8
aF9
aF10
aF11
aF12
aF13
aF14
aF15
aa(lp595
F0
aF1
aF2
aF3
aF4
aF5
aF6
aF7
aF8
aF9
aF10
aF11
aF12
aF13
aF14
aF15
aa(lp596
F0
aF1
aF2
aF3
aF4
aF5
aF6
aF7
aF8
aF9
aF10
aF11
aF12
aF13
aF14
aF15
aa(lp597
F0
aF1
aF2
aF3
aF4
aF5
aF6
aF7
aF8
aF9
aF10
aF11
aF12
aF13
aF14
aF15
aa(lp598
F0
aF1
aF2
aF3
aF4
aF5
aF6
aF7
aF8
aF9
aF10
aF11
aF12
aF13
aF14
aF15
aa(lp599
F0
aF1
aF2
aF3
aF4
aF5
aF6
aF7
aF8
aF9
aF10
aF11
aF12
aF13
aF14
aF15
aa(lp600
F0
aF1
aF2
aF3
aF4
aF5
aF6
aF7
aF8
aF9
aF10
aF11
aF12
aF13
aF14
aF15
aa(lp601
F0
aF1
aF2
aF3
aF4
aF5
aF6
aF7
aF8
aF9
aF10
aF11
aF12
aF13
aF14
aF15
aa(lp602
F0
aF1
aF2
aF3
aF4
aF5
aF6
aF7
aF8
aF9
aF10
aF11
aF12
aF13
aF14
aF15
aa(lp603
F0
aF1
aF2
aF3
aF4
aF5
aF6
aF7
aF8
aF9
aF10
aF11
aF12
aF13
aF14
aF15
aasg56
g72
sbag1
(g61
g3
NtRp604
(dp605
g64
I01
sg65
Nsg66
(lp606
(lp607
F0
aF1
aF2
aF3
aF4
aF5
aF6
aF7
aF8
aF9
aF10
aF11
aF12
aF13
aF14
aF15
aa(lp608
F0
aF1
aF2
aF3
aF4
aF5
aF6
aF7
aF8
aF9
aF10
aF11
aF12
aF13
aF14
aF15
aa(lp609
F0
aF1
aF2
aF3
aF4
aF5
aF6
aF7
aF8
aF9
aF10
aF11
aF12
aF13
aF14
aF15
aa(lp610
F0
aF1
aF2
aF3
aF4
aF5
aF6
aF7
aF8
aF9
aF10
aF11
aF12
aF13
aF14
aF15
aa(lp611
F0
aF1
aF2
aF3
aF4
aF5
aF6
aF7
aF8
aF9
aF10
aF11
aF12
aF13
aF14
aF15
aa(lp612
F0
aF1
aF2
aF3
aF4
aF5
aF6
aF7
aF8
aF9
aF10
aF11
aF12
aF13
aF14
aF15
aa(lp613
F0
aF1
aF2
aF3
aF4
aF5
aF6
aF7
aF8
aF9
aF10
aF11
aF12
aF13
aF14
aF15
aa(lp614
F0
aF1
aF2
aF3
aF4
aF5
aF6
aF7
aF8
aF9
aF10
aF11
aF12
aF13
aF14
aF15
aa(lp615
F0
aF1
aF2
aF3
aF4
aF5
aF6
aF7
aF8
aF9
aF10
aF11
aF12
aF13
aF14
aF15
aa(lp616
F0
aF1
aF2
aF3
aF4
aF5
aF6
aF7
aF8
aF9
aF10
aF11
aF12
aF13
aF14
aF15
aa(lp617
F0
aF1
aF2
aF3
aF4
aF5
aF6
aF7
aF8
aF9
aF10
aF11
aF12
aF13
aF14
aF15
aa(lp618
F0
aF1
aF2
aF3
aF4
aF5
aF6
aF7
aF8
aF9
aF10
aF11
aF12
aF13
aF14
aF15
aa(lp619
F0
aF1
aF2
aF3
aF4
aF5
aF6
aF7
aF8
aF9
aF10
aF11
aF12
aF13
aF14
aF15
aa(lp620
F0
aF1
aF2
aF3
aF4
aF5
aF6
aF7
aF8
aF9
aF10
aF11
aF12
aF13
aF14
aF15
aa(lp621
F0
aF1
aF2
aF3
aF4
aF5
aF6
aF7
aF8
aF9
aF10
aF11
aF12
aF13
aF14
aF15
aa(lp622
F0
aF1
aF2
aF3
aF4
aF5
aF6
aF7
aF8
aF9
aF10
aF11
aF12
aF13
aF14
aF15
aa(lp623
F0
aF1
aF2
aF3
aF4
aF5
aF6
aF7
aF8
aF9
aF10
aF11
aF12
aF13
aF14
aF15
aa(lp624
F0
aF1
aF2
aF3
aF4
aF5
aF6
aF7
aF8
aF9
aF10
aF11
aF12
aF13
aF14
aF15
aa(lp625
F0
aF1
aF2
aF3
aF4
aF5
aF6
aF7
aF8
aF9
aF10
aF11
aF12
aF13
aF14
aF15
aa(lp626
F0
aF1
aF2
aF3
aF4
aF5
aF6
aF7
aF8
aF9
aF10
aF11
aF12
aF13
aF14
aF15
aasg56
g76
sbasg35
(lp627
g1
(g61
g3
NtRp628
(dp629
g64
I01
sg65
Nsg66
(lp630
S'unknown'
p631
aS'unknown'
p632
aS'unknown'
p633
aS'unknown'
p634
aS'unknown'
p635
aS'unknown'
p636
aS'unknown'
p637
aS'unknown'
p638
aS'unknown'
p639
aS'unknown'
p640
aS'unknown'
p641
aS'unknown'
p642
aS'unknown'
p643
aS'unknown'
p644
aS'unknown'
p645
aS'unknown'
p646
aS'unknown'
p647
aS'unknown'
p648
aS'unknown'
p649
aS'unknown'
p650
asg56
g68
sbag1
(g61
g3
NtRp651
(dp652
g64
I01
sg65
Nsg66
(lp653
S'unknown'
p654
aS'unknown'
p655
aS'unknown'
p656
aS'unknown'
p657
aS'unknown'
p658
aS'unknown'
p659
aS'unknown'
p660
aS'unknown'
p661
aS'unknown'
p662
aS'unknown'
p663
aS'unknown'
p664
aS'unknown'
p665
aS'unknown'
p666
aS'unknown'
p667
aS'unknown'
p668
aS'unknown'
p669
aS'unknown'
p670
aS'unknown'
p671
aS'unknown'
p672
aS'unknown'
p673
asg56
g72
sbag1
(g61
g3
NtRp674
(dp675
g64
I01
sg65
Nsg66
(lp676
S'unknown'
p677
aS'unknown'
p678
aS'unknown'
p679
aS'unknown'
p680
aS'unknown'
p681
aS'unknown'
p682
aS'unknown'
p683
aS'unknown'
p684
aS'unknown'
p685
aS'unknown'
p686
aS'unknown'
p687
aS'unknown'
p688
aS'unknown'
p689
aS'unknown'
p690
aS'unknown'
p691
aS'unknown'
p692
aS'unknown'
p693
aS'unknown'
p694
aS'unknown'
p695
aS'unknown'
p696
asg56
g76
sbassS'data'
p697
(lp698
(S'(move 29 0 0)'
I5
tp699
a(S'(move 29 1 5)'
I5
tp700
a(S'(move 29 3 5)'
I10
tp701
a(S'(move 29 4 10)'
I10
tp702
a(S'(move 29 5 10)'
I15
tp703
a(S'(move 29 8 15)'
I15
tp704
a(S'(move 29 10 15)'
I15
tp705
a(S'(move 29 11 15)'
I15
tp706
a(S'(move 29 14 15)'
I15
tp707
a(S'(move 29 15 15)'
I15
tp708
a(S'(move 29 16 15)'
I15
tp709
a(S'(move 29 17 15)'
I15
tp710
a(S'(move 29 18 15)'
I15
tp711
asb.