ccopy_reg
_reconstructor
p1
(cventure.unit.history
History
p2
c__builtin__
object
p3
NtRp4
(dp5
S'nameToType'
p6
(dp7
S'logscore'
p8
S'number'
p9
sS'phi'
p10
S'sp'
p11
sS'scale'
p12
S'number'
p13
sS'features'
p14
S'dict'
p15
sS'move'
p16
S'sp'
p17
sS'hypers3'
p18
S'number'
p19
sS'sweep_iters'
p20
S'count'
p21
sS'observe_birds'
p22
S'sp'
p23
sS'sweep time (s)'
p24
g21
sS'count_birds'
p25
S'sp'
p26
sS'hypers0'
p27
S'number'
p28
sS'hypers1'
p29
S'number'
p30
sS'hypers2'
p31
S'number'
p32
sS'get_bird_move_dist'
p33
S'sp'
p34
sS'cell_array'
p35
S'array'
p36
sS'get_bird_pos'
p37
S'sp'
p38
ssS'parameters'
p39
(dp40
S'venture_random_seed'
p41
I0
sS'cells'
p42
I16
sS'days'
p43
(lp44
I0
aI1
aI2
aI3
aI4
aI5
aI6
aI7
aI8
aI9
aI10
aI11
aI12
aI13
aI14
aI15
aI16
aI17
aI18
aI19
asS'name'
p45
S'onebird'
p46
sS'years'
p47
(lp48
I3
assS'hypers'
p49
(lp50
cnumpy.core.multiarray
scalar
p51
(cnumpy
dtype
p52
(S'f8'
I0
I1
tRp53
(I3
S'<'
NNNI-1
I-1
I0
tbS'\x17cpt\xc8V\x05@'
tRp54
ag51
(g53
S"\xfc\xf4Po\\'!@"
tRp55
ag51
(g53
S'\x12\x02v\x07\x1e\xa8\x1c@'
tRp56
ag51
(g53
S'7\x8c\xdd9h*\x1c@'
tRp57
asS'label'
p58
S'run_from_conditional'
p59
sS'nameToSeries'
p60
(dp61
g8
(lp62
g1
(cventure.unit.history
Series
p63
g3
NtRp64
(dp65
S'hist'
p66
I01
sS'_xvals'
p67
NsS'values'
p68
(lp69
F-75.855863787634036
aF-74.973530907256162
aF-65.357166625616756
aF-61.737713247050714
aF-30.794326753986674
aF-32.977090926044362
aF-35.852882256709734
aF-31.725461173662111
aF-28.63513218532615
aF-30.00299689998295
aF-35.02938214936821
aF-27.325865484706799
aF-22.123686666668966
aF-22.123686666668966
aF-22.123686666668966
aF-22.123686666668966
aF-23.394676572867979
aF-21.005739940613342
aF-20.498861019525009
aF-20.498861019525009
asg58
S'run 0'
p70
sbasg10
(lp71
g1
(g63
g3
NtRp72
(dp73
g66
I01
sg67
Nsg68
(lp74
S'unknown'
p75
aS'unknown'
p76
aS'unknown'
p77
aS'unknown'
p78
aS'unknown'
p79
aS'unknown'
p80
aS'unknown'
p81
aS'unknown'
p82
aS'unknown'
p83
aS'unknown'
p84
aS'unknown'
p85
aS'unknown'
p86
aS'unknown'
p87
aS'unknown'
p88
aS'unknown'
p89
aS'unknown'
p90
aS'unknown'
p91
aS'unknown'
p92
aS'unknown'
p93
aS'unknown'
p94
asg58
g70
sbasg12
(lp95
g1
(g63
g3
NtRp96
(dp97
g66
I01
sg67
Nsg68
(lp98
F0.35261044083242477
aF0.35261044083242477
aF0.35261044083242477
aF0.35261044083242477
aF0.35261044083242477
aF0.35261044083242477
aF0.35261044083242477
aF0.63854478096168399
aF0.42012891791528639
aF0.42012891791528639
aF0.42012891791528639
aF1.1098716585457906
aF0.9365986091726507
aF0.9365986091726507
aF0.9365986091726507
aF0.9365986091726507
aF0.9365986091726507
aF1.2788779975709159
aF1.2788779975709159
aF1.2788779975709159
asg58
g70
sbasg14
(lp99
g1
(g63
g3
NtRp100
(dp101
g66
I01
sg67
Nsg68
(lp102
S'opaque'
p103
aS'opaque'
p104
aS'opaque'
p105
aS'opaque'
p106
aS'opaque'
p107
aS'opaque'
p108
aS'opaque'
p109
aS'opaque'
p110
aS'opaque'
p111
aS'opaque'
p112
aS'opaque'
p113
aS'opaque'
p114
aS'opaque'
p115
aS'opaque'
p116
aS'opaque'
p117
aS'opaque'
p118
aS'opaque'
p119
aS'opaque'
p120
aS'opaque'
p121
aS'opaque'
p122
asg58
g70
sbasg16
(lp123
g1
(g63
g3
NtRp124
(dp125
g66
I01
sg67
Nsg68
(lp126
S'unknown'
p127
aS'unknown'
p128
aS'unknown'
p129
aS'unknown'
p130
aS'unknown'
p131
aS'unknown'
p132
aS'unknown'
p133
aS'unknown'
p134
aS'unknown'
p135
aS'unknown'
p136
aS'unknown'
p137
aS'unknown'
p138
aS'unknown'
p139
aS'unknown'
p140
aS'unknown'
p141
aS'unknown'
p142
aS'unknown'
p143
aS'unknown'
p144
aS'unknown'
p145
aS'unknown'
p146
asg58
g70
sbasg18
(lp147
g1
(g63
g3
NtRp148
(dp149
g66
I01
sg67
Nsg68
(lp150
F-0.80246192377638814
aF-0.80246192377638814
aF-0.80246192377638814
aF1.7139199139709516
aF1.941448537557561
aF1.941448537557561
aF1.941448537557561
aF3.5157831068088896
aF2.3132005715619424
aF2.3132005715619424
aF2.3132005715619424
aF6.1108760797708239
aF5.1568467336474821
aF5.1568467336474821
aF5.1568467336474821
aF5.1568467336474821
aF5.1568467336474821
aF7.0414132157775873
aF7.0414132157775873
aF7.0414132157775873
asg58
g70
sbasg20
(lp151
g1
(g63
g3
NtRp152
(dp153
g66
I01
sg67
Nsg68
(lp154
I24
aI11
aI11
aI11
aI11
aI11
aI11
aI11
aI11
aI11
aI11
aI11
aI11
aI11
aI11
aI11
aI11
aI11
aI11
aI11
asg58
g70
sbasg22
(lp155
g1
(g63
g3
NtRp156
(dp157
g66
I01
sg67
Nsg68
(lp158
S'unknown'
p159
aS'unknown'
p160
aS'unknown'
p161
aS'unknown'
p162
aS'unknown'
p163
aS'unknown'
p164
aS'unknown'
p165
aS'unknown'
p166
aS'unknown'
p167
aS'unknown'
p168
aS'unknown'
p169
aS'unknown'
p170
aS'unknown'
p171
aS'unknown'
p172
aS'unknown'
p173
aS'unknown'
p174
aS'unknown'
p175
aS'unknown'
p176
aS'unknown'
p177
aS'unknown'
p178
asg58
g70
sbasg24
(lp179
g1
(g63
g3
NtRp180
(dp181
g66
I01
sg67
Nsg68
(lp182
F19.024220943450928
aF15.576107025146484
aF16.528494119644165
aF15.734051942825317
aF14.557738065719604
aF16.4567711353302
aF16.514612913131714
aF15.595501899719238
aF14.80520486831665
aF15.894535064697266
aF15.209938049316406
aF16.218080997467041
aF13.919917106628418
aF14.692912817001343
aF14.804688930511475
aF13.931610107421875
aF14.246302843093872
aF13.337725162506104
aF12.327625036239624
aF12.896222829818726
asg58
g70
sbasg25
(lp183
g1
(g63
g3
NtRp184
(dp185
g66
I01
sg67
Nsg68
(lp186
S'unknown'
p187
aS'unknown'
p188
aS'unknown'
p189
aS'unknown'
p190
aS'unknown'
p191
aS'unknown'
p192
aS'unknown'
p193
aS'unknown'
p194
aS'unknown'
p195
aS'unknown'
p196
aS'unknown'
p197
aS'unknown'
p198
aS'unknown'
p199
aS'unknown'
p200
aS'unknown'
p201
aS'unknown'
p202
aS'unknown'
p203
aS'unknown'
p204
aS'unknown'
p205
aS'unknown'
p206
asg58
g70
sbasg27
(lp207
g1
(g63
g3
NtRp208
(dp209
g66
I01
sg67
Nsg68
(lp210
F-3.248929278074459
aF-3.248929278074459
aF-3.248929278074459
aF-3.248929278074459
aF0.50811306083721708
aF0.50811306083721708
aF0.50811306083721708
aF0.92014559288182063
aF0.60540745737479562
aF0.60540745737479562
aF0.60540745737479562
aF1.5993295156798502
aF1.3496423559073301
aF1.3496423559073301
aF1.3496423559073301
aF1.3496423559073301
aF1.3496423559073301
aF2.667374524764806
aF2.667374524764806
aF2.667374524764806
asg58
g70
sbasg29
(lp211
g1
(g63
g3
NtRp212
(dp213
g66
I01
sg67
Nsg68
(lp214
F1.6870714540573162
aF1.6870714540573162
aF1.6870714540573162
aF1.6870714540573162
aF1.1636231581237826
aF1.1861947280713605
aF0.26401609955579214
aF0.47810865175524009
aF3.0285983294658112
aF3.0285983294658112
aF3.0285983294658112
aF6.9606068995557449
aF7.2461477888904291
aF7.2461477888904291
aF7.2461477888904291
aF7.2461477888904291
aF6.2813584838789902
aF8.5768770967792918
aF8.5768770967792918
aF8.5768770967792918
asg58
g70
sbasg31
(lp215
g1
(g63
g3
NtRp216
(dp217
g66
I01
sg67
Nsg68
(lp218
F-3.1949540723434842
aF-3.1949540723434842
aF-2.8815859824648222
aF0.86517369112886144
aF0.86517369112886144
aF0.86517369112886144
aF0.86517369112886144
aF1.5667492539117378
aF1.2078367191290649
aF1.2078367191290649
aF1.7246757374669424
aF4.556146077005077
aF3.8448410192774789
aF3.8448410192774789
aF3.8448410192774789
aF3.8448410192774789
aF3.8448410192774789
aF5.2499358162144105
aF7.1641770520950718
aF7.1641770520950718
asg58
g70
sbasg33
(lp219
g1
(g63
g3
NtRp220
(dp221
g66
I01
sg67
Nsg68
(lp222
S'unknown'
p223
aS'unknown'
p224
aS'unknown'
p225
aS'unknown'
p226
aS'unknown'
p227
aS'unknown'
p228
aS'unknown'
p229
aS'unknown'
p230
aS'unknown'
p231
aS'unknown'
p232
aS'unknown'
p233
aS'unknown'
p234
aS'unknown'
p235
aS'unknown'
p236
aS'unknown'
p237
aS'unknown'
p238
aS'unknown'
p239
aS'unknown'
p240
aS'unknown'
p241
aS'unknown'
p242
asg58
g70
sbasg35
(lp243
g1
(g63
g3
NtRp244
(dp245
g66
I01
sg67
Nsg68
(lp246
(lp247
F0
aF1
aF2
aF3
aF4
aF5
aF6
aF7
aF8
aF9
aF10
aF11
aF12
aF13
aF14
aF15
aa(lp248
F0
aF1
aF2
aF3
aF4
aF5
aF6
aF7
aF8
aF9
aF10
aF11
aF12
aF13
aF14
aF15
aa(lp249
F0
aF1
aF2
aF3
aF4
aF5
aF6
aF7
aF8
aF9
aF10
aF11
aF12
aF13
aF14
aF15
aa(lp250
F0
aF1
aF2
aF3
aF4
aF5
aF6
aF7
aF8
aF9
aF10
aF11
aF12
aF13
aF14
aF15
aa(lp251
F0
aF1
aF2
aF3
aF4
aF5
aF6
aF7
aF8
aF9
aF10
aF11
aF12
aF13
aF14
aF15
aa(lp252
F0
aF1
aF2
aF3
aF4
aF5
aF6
aF7
aF8
aF9
aF10
aF11
aF12
aF13
aF14
aF15
aa(lp253
F0
aF1
aF2
aF3
aF4
aF5
aF6
aF7
aF8
aF9
aF10
aF11
aF12
aF13
aF14
aF15
aa(lp254
F0
aF1
aF2
aF3
aF4
aF5
aF6
aF7
aF8
aF9
aF10
aF11
aF12
aF13
aF14
aF15
aa(lp255
F0
aF1
aF2
aF3
aF4
aF5
aF6
aF7
aF8
aF9
aF10
aF11
aF12
aF13
aF14
aF15
aa(lp256
F0
aF1
aF2
aF3
aF4
aF5
aF6
aF7
aF8
aF9
aF10
aF11
aF12
aF13
aF14
aF15
aa(lp257
F0
aF1
aF2
aF3
aF4
aF5
aF6
aF7
aF8
aF9
aF10
aF11
aF12
aF13
aF14
aF15
aa(lp258
F0
aF1
aF2
aF3
aF4
aF5
aF6
aF7
aF8
aF9
aF10
aF11
aF12
aF13
aF14
aF15
aa(lp259
F0
aF1
aF2
aF3
aF4
aF5
aF6
aF7
aF8
aF9
aF10
aF11
aF12
aF13
aF14
aF15
aa(lp260
F0
aF1
aF2
aF3
aF4
aF5
aF6
aF7
aF8
aF9
aF10
aF11
aF12
aF13
aF14
aF15
aa(lp261
F0
aF1
aF2
aF3
aF4
aF5
aF6
aF7
aF8
aF9
aF10
aF11
aF12
aF13
aF14
aF15
aa(lp262
F0
aF1
aF2
aF3
aF4
aF5
aF6
aF7
aF8
aF9
aF10
aF11
aF12
aF13
aF14
aF15
aa(lp263
F0
aF1
aF2
aF3
aF4
aF5
aF6
aF7
aF8
aF9
aF10
aF11
aF12
aF13
aF14
aF15
aa(lp264
F0
aF1
aF2
aF3
aF4
aF5
aF6
aF7
aF8
aF9
aF10
aF11
aF12
aF13
aF14
aF15
aa(lp265
F0
aF1
aF2
aF3
aF4
aF5
aF6
aF7
aF8
aF9
aF10
aF11
aF12
aF13
aF14
aF15
aa(lp266
F0
aF1
aF2
aF3
aF4
aF5
aF6
aF7
aF8
aF9
aF10
aF11
aF12
aF13
aF14
aF15
aasg58
g70
sbasg37
(lp267
g1
(g63
g3
NtRp268
(dp269
g66
I01
sg67
Nsg68
(lp270
S'unknown'
p271
aS'unknown'
p272
aS'unknown'
p273
aS'unknown'
p274
aS'unknown'
p275
aS'unknown'
p276
aS'unknown'
p277
aS'unknown'
p278
aS'unknown'
p279
aS'unknown'
p280
aS'unknown'
p281
aS'unknown'
p282
aS'unknown'
p283
aS'unknown'
p284
aS'unknown'
p285
aS'unknown'
p286
aS'unknown'
p287
aS'unknown'
p288
aS'unknown'
p289
aS'unknown'
p290
asg58
g70
sbassS'data'
p291
(lp292
(S'(get_bird_pos 3 1)'
I0
tp293
a(S'(get_bird_pos 3 2)'
I0
tp294
a(S'(get_bird_pos 3 3)'
I4
tp295
a(S'(get_bird_pos 3 5)'
I7
tp296
a(S'(get_bird_pos 3 6)'
I11
tp297
a(S'(get_bird_pos 3 8)'
I15
tp298
a(S'(get_bird_pos 3 9)'
I15
tp299
a(S'(get_bird_pos 3 10)'
I15
tp300
a(S'(get_bird_pos 3 11)'
I15
tp301
a(S'(get_bird_pos 3 13)'
I15
tp302
a(S'(get_bird_pos 3 14)'
I15
tp303
a(S'(get_bird_pos 3 16)'
I15
tp304
a(S'(get_bird_pos 3 19)'
I15
tp305
asb.