ccopy_reg
_reconstructor
p1
(cventure.unit.history
History
p2
c__builtin__
object
p3
NtRp4
(dp5
S'nameToType'
p6
(dp7
S'logscore'
p8
S'number'
p9
sS'phi'
p10
S'sp'
p11
sS'scale'
p12
S'number'
p13
sS'features'
p14
S'dict'
p15
sS'move'
p16
S'sp'
p17
sS'hypers3'
p18
S'number'
p19
sS'sweep_iters'
p20
S'count'
p21
sS'observe_birds'
p22
S'sp'
p23
sS'sweep time (s)'
p24
g21
sS'count_birds'
p25
S'sp'
p26
sS'hypers0'
p27
S'number'
p28
sS'hypers1'
p29
S'number'
p30
sS'hypers2'
p31
S'number'
p32
sS'get_bird_move_dist'
p33
S'sp'
p34
sS'cell_array'
p35
S'array'
p36
sS'get_bird_pos'
p37
S'sp'
p38
ssS'parameters'
p39
(dp40
S'venture_random_seed'
p41
I0
sS'cells'
p42
I16
sS'days'
p43
(lp44
I0
aI1
aI2
aI3
aI4
aI5
aI6
aI7
aI8
aI9
aI10
aI11
aI12
aI13
aI14
aI15
aI16
aI17
aI18
aI19
asS'name'
p45
S'onebird'
p46
sS'years'
p47
(lp48
I23
assS'hypers'
p49
(lp50
cnumpy.core.multiarray
scalar
p51
(cnumpy
dtype
p52
(S'f8'
I0
I1
tRp53
(I3
S'<'
NNNI-1
I-1
I0
tbS'\xfb(*md\xe9+\xc0'
tRp54
ag51
(g53
S'Li\xb5\x08i\xf6\x1d@'
tRp55
ag51
(g53
S'\xc1\x91\xbf\xe8)7\xf1?'
tRp56
ag51
(g53
S'\xccSA\x17\xf1\x93\xf6\xbf'
tRp57
asS'label'
p58
S'run_from_conditional'
p59
sS'nameToSeries'
p60
(dp61
g8
(lp62
g1
(cventure.unit.history
Series
p63
g3
NtRp64
(dp65
S'hist'
p66
I01
sS'_xvals'
p67
NsS'values'
p68
(lp69
F-175.0490316633304
aF-47.115493793802877
aF-37.637997692017919
aF-37.904654323630844
aF-35.455901686196896
aF-39.450897429779531
aF-32.214085915301567
aF-32.52700428684458
aF-32.710727071936539
aF-34.30680429316098
aF-33.723738159632155
aF-37.657907323342563
aF-30.971738399028187
aF-33.956126885336737
aF-31.159674390865053
aF-33.146095469252906
aF-31.867559511493987
aF-30.370112932729523
aF-31.551587582327468
aF-30.971738399028187
asg58
S'run 0'
p70
sbasg10
(lp71
g1
(g63
g3
NtRp72
(dp73
g66
I01
sg67
Nsg68
(lp74
S'unknown'
p75
aS'unknown'
p76
aS'unknown'
p77
aS'unknown'
p78
aS'unknown'
p79
aS'unknown'
p80
aS'unknown'
p81
aS'unknown'
p82
aS'unknown'
p83
aS'unknown'
p84
aS'unknown'
p85
aS'unknown'
p86
aS'unknown'
p87
aS'unknown'
p88
aS'unknown'
p89
aS'unknown'
p90
aS'unknown'
p91
aS'unknown'
p92
aS'unknown'
p93
aS'unknown'
p94
asg58
g70
sbasg12
(lp95
g1
(g63
g3
NtRp96
(dp97
g66
I01
sg67
Nsg68
(lp98
F0.84208641701531151
aF0.84208641701531151
aF0.84208641701531151
aF0.84208641701531151
aF1.1780096889492495
aF1.1780096889492495
aF1.1780096889492495
aF1.1780096889492495
aF1.1780096889492495
aF0.5347653484339957
aF0.5347653484339957
aF0.61290865495643609
aF0.76653563338100661
aF0.76653563338100661
aF0.76653563338100661
aF0.76653563338100661
aF0.76653563338100661
aF0.76653563338100661
aF0.76653563338100661
aF0.76653563338100661
asg58
g70
sbasg14
(lp99
g1
(g63
g3
NtRp100
(dp101
g66
I01
sg67
Nsg68
(lp102
S'opaque'
p103
aS'opaque'
p104
aS'opaque'
p105
aS'opaque'
p106
aS'opaque'
p107
aS'opaque'
p108
aS'opaque'
p109
aS'opaque'
p110
aS'opaque'
p111
aS'opaque'
p112
aS'opaque'
p113
aS'opaque'
p114
aS'opaque'
p115
aS'opaque'
p116
aS'opaque'
p117
aS'opaque'
p118
aS'opaque'
p119
aS'opaque'
p120
aS'opaque'
p121
aS'opaque'
p122
asg58
g70
sbasg16
(lp123
g1
(g63
g3
NtRp124
(dp125
g66
I01
sg67
Nsg68
(lp126
S'unknown'
p127
aS'unknown'
p128
aS'unknown'
p129
aS'unknown'
p130
aS'unknown'
p131
aS'unknown'
p132
aS'unknown'
p133
aS'unknown'
p134
aS'unknown'
p135
aS'unknown'
p136
aS'unknown'
p137
aS'unknown'
p138
aS'unknown'
p139
aS'unknown'
p140
aS'unknown'
p141
aS'unknown'
p142
aS'unknown'
p143
aS'unknown'
p144
aS'unknown'
p145
aS'unknown'
p146
asg58
g70
sbasg18
(lp147
g1
(g63
g3
NtRp148
(dp149
g66
I01
sg67
Nsg68
(lp150
F-15.281243346579187
aF-2.141604894865611
aF-2.141604894865611
aF-2.141604894865611
aF-2.9959292360928278
aF-2.9959292360928278
aF-2.1686028719592301
aF-2.1686028719592301
aF-2.1686028719592301
aF-0.98445172507252843
aF-0.98445172507252843
aF-1.1283060588175333
aF-1.4111185940175686
aF-1.4111185940175686
aF-1.4111185940175686
aF-1.4111185940175686
aF-1.4111185940175686
aF-1.4111185940175686
aF-1.4111185940175686
aF-1.4111185940175686
asg58
g70
sbasg20
(lp151
g1
(g63
g3
NtRp152
(dp153
g66
I01
sg67
Nsg68
(lp154
I24
aI13
aI13
aI13
aI13
aI13
aI13
aI13
aI13
aI13
aI13
aI13
aI13
aI13
aI13
aI13
aI13
aI13
aI13
aI13
asg58
g70
sbasg22
(lp155
g1
(g63
g3
NtRp156
(dp157
g66
I01
sg67
Nsg68
(lp158
S'unknown'
p159
aS'unknown'
p160
aS'unknown'
p161
aS'unknown'
p162
aS'unknown'
p163
aS'unknown'
p164
aS'unknown'
p165
aS'unknown'
p166
aS'unknown'
p167
aS'unknown'
p168
aS'unknown'
p169
aS'unknown'
p170
aS'unknown'
p171
aS'unknown'
p172
aS'unknown'
p173
aS'unknown'
p174
aS'unknown'
p175
aS'unknown'
p176
aS'unknown'
p177
aS'unknown'
p178
asg58
g70
sbasg24
(lp179
g1
(g63
g3
NtRp180
(dp181
g66
I01
sg67
Nsg68
(lp182
F24.564700841903687
aF20.760196924209595
aF21.127480030059814
aF18.755911827087402
aF21.460000991821289
aF21.008600950241089
aF20.910363912582397
aF20.654026031494141
aF21.585612058639526
aF18.116836071014404
aF19.550481081008911
aF19.677504062652588
aF18.191275119781494
aF17.556197166442871
aF15.697062015533447
aF14.811564207077026
aF14.366905927658081
aF12.530570983886719
aF12.099983215332031
aF12.473278045654297
asg58
g70
sbasg25
(lp183
g1
(g63
g3
NtRp184
(dp185
g66
I01
sg67
Nsg68
(lp186
S'unknown'
p187
aS'unknown'
p188
aS'unknown'
p189
aS'unknown'
p190
aS'unknown'
p191
aS'unknown'
p192
aS'unknown'
p193
aS'unknown'
p194
aS'unknown'
p195
aS'unknown'
p196
aS'unknown'
p197
aS'unknown'
p198
aS'unknown'
p199
aS'unknown'
p200
aS'unknown'
p201
aS'unknown'
p202
aS'unknown'
p203
aS'unknown'
p204
aS'unknown'
p205
aS'unknown'
p206
asg58
g70
sbasg27
(lp207
g1
(g63
g3
NtRp208
(dp209
g66
I01
sg67
Nsg68
(lp210
F-12.790311357814947
aF-12.790311357814947
aF-12.790311357814947
aF-12.790311357814947
aF-17.892594393800412
aF-17.892594393800412
aF-17.892594393800412
aF-17.892594393800412
aF-21.447300174864885
aF-9.7361448369837902
aF-9.7361448369837902
aF-11.158852109568421
aF-13.955844317814345
aF-13.955844317814345
aF-13.955844317814345
aF-13.955844317814345
aF-13.955844317814345
aF-13.955844317814345
aF-13.955844317814345
aF-13.955844317814345
asg58
g70
sbasg29
(lp211
g1
(g63
g3
NtRp212
(dp213
g66
I01
sg67
Nsg68
(lp214
F6.7217841268441338
aF6.7217841268441338
aF6.7217841268441338
aF6.7217841268441338
aF9.4032235509905906
aF9.4032235509905906
aF11.511585735400885
aF11.511585735400885
aF11.511585735400885
aF5.2257610566093398
aF5.2257610566093398
aF5.9893824267214644
aF7.4906350479817085
aF7.4906350479817085
aF7.4906350479817085
aF7.4906350479817085
aF7.4906350479817085
aF7.4906350479817085
aF7.4906350479817085
aF7.4906350479817085
asg58
g70
sbasg31
(lp215
g1
(g63
g3
NtRp216
(dp217
g66
I01
sg67
Nsg68
(lp218
F1.1577121240987145
aF1.1577121240987145
aF1.1577121240987145
aF1.1577121240987145
aF1.6195441128668673
aF1.6195441128668673
aF1.6195441128668673
aF1.6195441128668673
aF1.6195441128668673
aF0.50923331753046541
aF0.50923331753046541
aF0.58364572166202044
aF1.0759677020770229
aF1.0759677020770229
aF1.0759677020770229
aF1.0759677020770229
aF1.0759677020770229
aF1.0759677020770229
aF1.0759677020770229
aF1.0759677020770229
asg58
g70
sbasg33
(lp219
g1
(g63
g3
NtRp220
(dp221
g66
I01
sg67
Nsg68
(lp222
S'unknown'
p223
aS'unknown'
p224
aS'unknown'
p225
aS'unknown'
p226
aS'unknown'
p227
aS'unknown'
p228
aS'unknown'
p229
aS'unknown'
p230
aS'unknown'
p231
aS'unknown'
p232
aS'unknown'
p233
aS'unknown'
p234
aS'unknown'
p235
aS'unknown'
p236
aS'unknown'
p237
aS'unknown'
p238
aS'unknown'
p239
aS'unknown'
p240
aS'unknown'
p241
aS'unknown'
p242
asg58
g70
sbasg35
(lp243
g1
(g63
g3
NtRp244
(dp245
g66
I01
sg67
Nsg68
(lp246
(lp247
F0
aF1
aF2
aF3
aF4
aF5
aF6
aF7
aF8
aF9
aF10
aF11
aF12
aF13
aF14
aF15
aa(lp248
F0
aF1
aF2
aF3
aF4
aF5
aF6
aF7
aF8
aF9
aF10
aF11
aF12
aF13
aF14
aF15
aa(lp249
F0
aF1
aF2
aF3
aF4
aF5
aF6
aF7
aF8
aF9
aF10
aF11
aF12
aF13
aF14
aF15
aa(lp250
F0
aF1
aF2
aF3
aF4
aF5
aF6
aF7
aF8
aF9
aF10
aF11
aF12
aF13
aF14
aF15
aa(lp251
F0
aF1
aF2
aF3
aF4
aF5
aF6
aF7
aF8
aF9
aF10
aF11
aF12
aF13
aF14
aF15
aa(lp252
F0
aF1
aF2
aF3
aF4
aF5
aF6
aF7
aF8
aF9
aF10
aF11
aF12
aF13
aF14
aF15
aa(lp253
F0
aF1
aF2
aF3
aF4
aF5
aF6
aF7
aF8
aF9
aF10
aF11
aF12
aF13
aF14
aF15
aa(lp254
F0
aF1
aF2
aF3
aF4
aF5
aF6
aF7
aF8
aF9
aF10
aF11
aF12
aF13
aF14
aF15
aa(lp255
F0
aF1
aF2
aF3
aF4
aF5
aF6
aF7
aF8
aF9
aF10
aF11
aF12
aF13
aF14
aF15
aa(lp256
F0
aF1
aF2
aF3
aF4
aF5
aF6
aF7
aF8
aF9
aF10
aF11
aF12
aF13
aF14
aF15
aa(lp257
F0
aF1
aF2
aF3
aF4
aF5
aF6
aF7
aF8
aF9
aF10
aF11
aF12
aF13
aF14
aF15
aa(lp258
F0
aF1
aF2
aF3
aF4
aF5
aF6
aF7
aF8
aF9
aF10
aF11
aF12
aF13
aF14
aF15
aa(lp259
F0
aF1
aF2
aF3
aF4
aF5
aF6
aF7
aF8
aF9
aF10
aF11
aF12
aF13
aF14
aF15
aa(lp260
F0
aF1
aF2
aF3
aF4
aF5
aF6
aF7
aF8
aF9
aF10
aF11
aF12
aF13
aF14
aF15
aa(lp261
F0
aF1
aF2
aF3
aF4
aF5
aF6
aF7
aF8
aF9
aF10
aF11
aF12
aF13
aF14
aF15
aa(lp262
F0
aF1
aF2
aF3
aF4
aF5
aF6
aF7
aF8
aF9
aF10
aF11
aF12
aF13
aF14
aF15
aa(lp263
F0
aF1
aF2
aF3
aF4
aF5
aF6
aF7
aF8
aF9
aF10
aF11
aF12
aF13
aF14
aF15
aa(lp264
F0
aF1
aF2
aF3
aF4
aF5
aF6
aF7
aF8
aF9
aF10
aF11
aF12
aF13
aF14
aF15
aa(lp265
F0
aF1
aF2
aF3
aF4
aF5
aF6
aF7
aF8
aF9
aF10
aF11
aF12
aF13
aF14
aF15
aa(lp266
F0
aF1
aF2
aF3
aF4
aF5
aF6
aF7
aF8
aF9
aF10
aF11
aF12
aF13
aF14
aF15
aasg58
g70
sbasg37
(lp267
g1
(g63
g3
NtRp268
(dp269
g66
I01
sg67
Nsg68
(lp270
S'unknown'
p271
aS'unknown'
p272
aS'unknown'
p273
aS'unknown'
p274
aS'unknown'
p275
aS'unknown'
p276
aS'unknown'
p277
aS'unknown'
p278
aS'unknown'
p279
aS'unknown'
p280
aS'unknown'
p281
aS'unknown'
p282
aS'unknown'
p283
aS'unknown'
p284
aS'unknown'
p285
aS'unknown'
p286
aS'unknown'
p287
aS'unknown'
p288
aS'unknown'
p289
aS'unknown'
p290
asg58
g70
sbassS'data'
p291
(lp292
(S'(get_bird_pos 23 4)'
I13
tp293
a(S'(get_bird_pos 23 6)'
I14
tp294
a(S'(get_bird_pos 23 8)'
I14
tp295
a(S'(get_bird_pos 23 9)'
I14
tp296
a(S'(get_bird_pos 23 12)'
I14
tp297
a(S'(get_bird_pos 23 13)'
I14
tp298
a(S'(get_bird_pos 23 15)'
I14
tp299
a(S'(get_bird_pos 23 16)'
I14
tp300
a(S'(get_bird_pos 23 17)'
I14
tp301
a(S'(get_bird_pos 23 18)'
I15
tp302
a(S'(get_bird_pos 23 19)'
I15
tp303
asb.