ccopy_reg
_reconstructor
p1
(cventure.unit.history
History
p2
c__builtin__
object
p3
NtRp4
(dp5
S'nameToType'
p6
(dp7
S'logscore'
p8
S'number'
p9
sS'phi'
p10
S'sp'
p11
sS'count_birds'
p12
S'sp'
p13
sS'features'
p14
S'dict'
p15
sS'move'
p16
S'sp'
p17
sS'hypers3'
p18
S'number'
p19
sS'sweep_iters'
p20
S'count'
p21
sS'observe_birds'
p22
S'sp'
p23
sS'sweep time (s)'
p24
g21
sS'hypers0'
p25
S'number'
p26
sS'hypers1'
p27
S'number'
p28
sS'hypers2'
p29
S'number'
p30
sS'get_bird_move_dist'
p31
S'sp'
p32
sS'cell_array'
p33
S'array'
p34
sS'get_bird_pos'
p35
S'sp'
p36
ssS'parameters'
p37
(dp38
S'venture_random_seed'
p39
I0
sS'cells'
p40
I16
sS'days'
p41
(lp42
I0
aI1
aI2
aI3
aI4
aI5
aI6
aI7
aI8
aI9
aI10
aI11
aI12
aI13
aI14
aI15
aI16
aI17
aI18
aI19
asS'name'
p43
S'onebird'
p44
sS'years'
p45
(lp46
I6
assS'hypers'
p47
(lp48
cnumpy.core.multiarray
scalar
p49
(cnumpy
dtype
p50
(S'f8'
I0
I1
tRp51
(I3
S'<'
NNNI-1
I-1
I0
tbS'7?]\xe5\x9f>\x12@'
tRp52
ag49
(g51
S'\xa8\xb4\x92\xee\x9f\x9d$@'
tRp53
ag49
(g51
S'\xbb\x8b\x99\xd7&5\xf6?'
tRp54
ag49
(g51
S';\xae\xb3\xe0\x19. @'
tRp55
asS'label'
p56
S'run_from_conditional'
p57
sS'nameToSeries'
p58
(dp59
g8
(lp60
g1
(cventure.unit.history
Series
p61
g3
NtRp62
(dp63
S'hist'
p64
I01
sS'_xvals'
p65
NsS'values'
p66
(lp67
F-22.299430959947284
aF-22.231380710485038
aF-24.000384896294655
aF-22.990879784812641
aF-22.088212869485808
aF-21.174921385442296
aF-22.140061468157818
aF-22.118584570314869
aF-22.312694483238353
aF-22.64943105465062
aF-21.064827869274335
aF-21.866274954934489
aF-21.338103067536405
aF-22.625692779487061
aF-23.326718641047069
aF-22.006278418070476
aF-22.092183112690947
aF-23.463109138953193
aF-24.657076301382681
aF-21.95801163928499
asg56
S'run 0'
p68
sbag1
(g61
g3
NtRp69
(dp70
g64
I01
sg65
Nsg66
(lp71
F-21.108373179687501
aF-22.535256922045129
aF-21.758390928657072
aF-22.382124296622468
aF-21.220440161036567
aF-22.052094183863495
aF-22.554591503731189
aF-21.331464977753114
aF-23.021385218401026
aF-21.07678861557994
aF-21.372349203555107
aF-22.121443134822616
aF-21.555220571037633
aF-21.3748314325202
aF-22.357166592885825
aF-21.343601181661967
aF-22.934595512731835
aF-21.685093250884503
aF-20.886349747159333
aF-21.421181505982204
asg56
S'run 1'
p72
sbag1
(g61
g3
NtRp73
(dp74
g64
I01
sg65
Nsg66
(lp75
F-24.908890776758874
aF-25.015843120158188
aF-24.495995043355741
aF-24.287363589853999
aF-27.246530073301368
aF-24.248286428901441
aF-23.334171589868305
aF-23.429650915289407
aF-26.677035984228844
aF-23.904164549319965
aF-23.919873278556203
aF-23.31862904651344
aF-22.423942035077445
aF-24.06877967930556
aF-26.348968659899935
aF-21.11217915284162
aF-21.686643077191306
aF-22.6085378429079
aF-23.164551333803608
aF-23.125304377809389
asg56
S'run 2'
p76
sbasg10
(lp77
g1
(g61
g3
NtRp78
(dp79
g64
I01
sg65
Nsg66
(lp80
S'unknown'
p81
aS'unknown'
p82
aS'unknown'
p83
aS'unknown'
p84
aS'unknown'
p85
aS'unknown'
p86
aS'unknown'
p87
aS'unknown'
p88
aS'unknown'
p89
aS'unknown'
p90
aS'unknown'
p91
aS'unknown'
p92
aS'unknown'
p93
aS'unknown'
p94
aS'unknown'
p95
aS'unknown'
p96
aS'unknown'
p97
aS'unknown'
p98
aS'unknown'
p99
aS'unknown'
p100
asg56
g68
sbag1
(g61
g3
NtRp101
(dp102
g64
I01
sg65
Nsg66
(lp103
S'unknown'
p104
aS'unknown'
p105
aS'unknown'
p106
aS'unknown'
p107
aS'unknown'
p108
aS'unknown'
p109
aS'unknown'
p110
aS'unknown'
p111
aS'unknown'
p112
aS'unknown'
p113
aS'unknown'
p114
aS'unknown'
p115
aS'unknown'
p116
aS'unknown'
p117
aS'unknown'
p118
aS'unknown'
p119
aS'unknown'
p120
aS'unknown'
p121
aS'unknown'
p122
aS'unknown'
p123
asg56
g72
sbag1
(g61
g3
NtRp124
(dp125
g64
I01
sg65
Nsg66
(lp126
S'unknown'
p127
aS'unknown'
p128
aS'unknown'
p129
aS'unknown'
p130
aS'unknown'
p131
aS'unknown'
p132
aS'unknown'
p133
aS'unknown'
p134
aS'unknown'
p135
aS'unknown'
p136
aS'unknown'
p137
aS'unknown'
p138
aS'unknown'
p139
aS'unknown'
p140
aS'unknown'
p141
aS'unknown'
p142
aS'unknown'
p143
aS'unknown'
p144
aS'unknown'
p145
aS'unknown'
p146
asg56
g76
sbasg12
(lp147
g1
(g61
g3
NtRp148
(dp149
g64
I01
sg65
Nsg66
(lp150
S'unknown'
p151
aS'unknown'
p152
aS'unknown'
p153
aS'unknown'
p154
aS'unknown'
p155
aS'unknown'
p156
aS'unknown'
p157
aS'unknown'
p158
aS'unknown'
p159
aS'unknown'
p160
aS'unknown'
p161
aS'unknown'
p162
aS'unknown'
p163
aS'unknown'
p164
aS'unknown'
p165
aS'unknown'
p166
aS'unknown'
p167
aS'unknown'
p168
aS'unknown'
p169
aS'unknown'
p170
asg56
g68
sbag1
(g61
g3
NtRp171
(dp172
g64
I01
sg65
Nsg66
(lp173
S'unknown'
p174
aS'unknown'
p175
aS'unknown'
p176
aS'unknown'
p177
aS'unknown'
p178
aS'unknown'
p179
aS'unknown'
p180
aS'unknown'
p181
aS'unknown'
p182
aS'unknown'
p183
aS'unknown'
p184
aS'unknown'
p185
aS'unknown'
p186
aS'unknown'
p187
aS'unknown'
p188
aS'unknown'
p189
aS'unknown'
p190
aS'unknown'
p191
aS'unknown'
p192
aS'unknown'
p193
asg56
g72
sbag1
(g61
g3
NtRp194
(dp195
g64
I01
sg65
Nsg66
(lp196
S'unknown'
p197
aS'unknown'
p198
aS'unknown'
p199
aS'unknown'
p200
aS'unknown'
p201
aS'unknown'
p202
aS'unknown'
p203
aS'unknown'
p204
aS'unknown'
p205
aS'unknown'
p206
aS'unknown'
p207
aS'unknown'
p208
aS'unknown'
p209
aS'unknown'
p210
aS'unknown'
p211
aS'unknown'
p212
aS'unknown'
p213
aS'unknown'
p214
aS'unknown'
p215
aS'unknown'
p216
asg56
g76
sbasg14
(lp217
g1
(g61
g3
NtRp218
(dp219
g64
I01
sg65
Nsg66
(lp220
S'opaque'
p221
aS'opaque'
p222
aS'opaque'
p223
aS'opaque'
p224
aS'opaque'
p225
aS'opaque'
p226
aS'opaque'
p227
aS'opaque'
p228
aS'opaque'
p229
aS'opaque'
p230
aS'opaque'
p231
aS'opaque'
p232
aS'opaque'
p233
aS'opaque'
p234
aS'opaque'
p235
aS'opaque'
p236
aS'opaque'
p237
aS'opaque'
p238
aS'opaque'
p239
aS'opaque'
p240
asg56
g68
sbag1
(g61
g3
NtRp241
(dp242
g64
I01
sg65
Nsg66
(lp243
S'opaque'
p244
aS'opaque'
p245
aS'opaque'
p246
aS'opaque'
p247
aS'opaque'
p248
aS'opaque'
p249
aS'opaque'
p250
aS'opaque'
p251
aS'opaque'
p252
aS'opaque'
p253
aS'opaque'
p254
aS'opaque'
p255
aS'opaque'
p256
aS'opaque'
p257
aS'opaque'
p258
aS'opaque'
p259
aS'opaque'
p260
aS'opaque'
p261
aS'opaque'
p262
aS'opaque'
p263
asg56
g72
sbag1
(g61
g3
NtRp264
(dp265
g64
I01
sg65
Nsg66
(lp266
S'opaque'
p267
aS'opaque'
p268
aS'opaque'
p269
aS'opaque'
p270
aS'opaque'
p271
aS'opaque'
p272
aS'opaque'
p273
aS'opaque'
p274
aS'opaque'
p275
aS'opaque'
p276
aS'opaque'
p277
aS'opaque'
p278
aS'opaque'
p279
aS'opaque'
p280
aS'opaque'
p281
aS'opaque'
p282
aS'opaque'
p283
aS'opaque'
p284
aS'opaque'
p285
aS'opaque'
p286
asg56
g76
sbasg16
(lp287
g1
(g61
g3
NtRp288
(dp289
g64
I01
sg65
Nsg66
(lp290
S'unknown'
p291
aS'unknown'
p292
aS'unknown'
p293
aS'unknown'
p294
aS'unknown'
p295
aS'unknown'
p296
aS'unknown'
p297
aS'unknown'
p298
aS'unknown'
p299
aS'unknown'
p300
aS'unknown'
p301
aS'unknown'
p302
aS'unknown'
p303
aS'unknown'
p304
aS'unknown'
p305
aS'unknown'
p306
aS'unknown'
p307
aS'unknown'
p308
aS'unknown'
p309
aS'unknown'
p310
asg56
g68
sbag1
(g61
g3
NtRp311
(dp312
g64
I01
sg65
Nsg66
(lp313
S'unknown'
p314
aS'unknown'
p315
aS'unknown'
p316
aS'unknown'
p317
aS'unknown'
p318
aS'unknown'
p319
aS'unknown'
p320
aS'unknown'
p321
aS'unknown'
p322
aS'unknown'
p323
aS'unknown'
p324
aS'unknown'
p325
aS'unknown'
p326
aS'unknown'
p327
aS'unknown'
p328
aS'unknown'
p329
aS'unknown'
p330
aS'unknown'
p331
aS'unknown'
p332
aS'unknown'
p333
asg56
g72
sbag1
(g61
g3
NtRp334
(dp335
g64
I01
sg65
Nsg66
(lp336
S'unknown'
p337
aS'unknown'
p338
aS'unknown'
p339
aS'unknown'
p340
aS'unknown'
p341
aS'unknown'
p342
aS'unknown'
p343
aS'unknown'
p344
aS'unknown'
p345
aS'unknown'
p346
aS'unknown'
p347
aS'unknown'
p348
aS'unknown'
p349
aS'unknown'
p350
aS'unknown'
p351
aS'unknown'
p352
aS'unknown'
p353
aS'unknown'
p354
aS'unknown'
p355
aS'unknown'
p356
asg56
g76
sbasg18
(lp357
g1
(g61
g3
NtRp358
(dp359
g64
I01
sg65
Nsg66
(lp360
F9.575587941517588
aF4.5783076019713302
aF5.0746686525477998
aF4.938026977892962
aF4.5130044342459241
aF6.30238407303007
aF8.3241361078155229
aF8.0216308910515117
aF6.836674305208196
aF6.1525969457801262
aF7.4687964349807974
aF7.2100512201526303
aF6.2735270918623121
aF7.1581860740272614
aF8.2751792998808433
aF8.6505004471553217
aF8.7379053173721406
aF9.8697359425602524
aF10.490856633436104
aF7.3146731955705055
asg56
g68
sbag1
(g61
g3
NtRp361
(dp362
g64
I01
sg65
Nsg66
(lp363
F4.8063897867402039
aF3.9409561005582834
aF3.9787410334137281
aF3.6088562114643254
aF5.8960586722175954
aF4.1761999650143578
aF5.8954746973550733
aF5.1290062638865326
aF6.3770326503600243
aF5.3194372299551818
aF4.361580502086472
aF3.0875651328444969
aF4.5770742107737261
aF5.485478491862688
aF5.475023088925953
aF5.2424497234573195
aF5.727523494316574
aF6.0339248685179596
aF6.4623210899465438
aF6.8794080859180013
asg56
g72
sbag1
(g61
g3
NtRp364
(dp365
g64
I01
sg65
Nsg66
(lp366
F17.492784899736403
aF17.168641638774897
aF14.773527487289527
aF14.308578126793714
aF15.810351650019356
aF15.312746569885853
aF13.988841486143141
aF15.194974300970078
aF16.083069538543697
aF13.776161522413032
aF12.063952403392125
aF10.947786479209956
aF8.7511111565127084
aF8.6253796994158769
aF7.1366905867501345
aF7.4222448398998662
aF10.321936447713348
aF8.3969875026184866
aF10.122481637804094
aF10.076042263014701
asg56
g76
sbasg20
(lp367
g1
(g61
g3
NtRp368
(dp369
g64
I01
sg65
Nsg66
(lp370
I16
aI4
aI4
aI4
aI4
aI4
aI4
aI4
aI4
aI4
aI4
aI4
aI4
aI4
aI4
aI4
aI4
aI4
aI4
aI4
asg56
g68
sbag1
(g61
g3
NtRp371
(dp372
g64
I01
sg65
Nsg66
(lp373
I16
aI4
aI4
aI4
aI4
aI4
aI4
aI4
aI4
aI4
aI4
aI4
aI4
aI4
aI4
aI4
aI4
aI4
aI4
aI4
asg56
g72
sbag1
(g61
g3
NtRp374
(dp375
g64
I01
sg65
Nsg66
(lp376
I16
aI4
aI4
aI4
aI4
aI4
aI4
aI4
aI4
aI4
aI4
aI4
aI4
aI4
aI4
aI4
aI4
aI4
aI4
aI4
asg56
g76
sbasg22
(lp377
g1
(g61
g3
NtRp378
(dp379
g64
I01
sg65
Nsg66
(lp380
S'unknown'
p381
aS'unknown'
p382
aS'unknown'
p383
aS'unknown'
p384
aS'unknown'
p385
aS'unknown'
p386
aS'unknown'
p387
aS'unknown'
p388
aS'unknown'
p389
aS'unknown'
p390
aS'unknown'
p391
aS'unknown'
p392
aS'unknown'
p393
aS'unknown'
p394
aS'unknown'
p395
aS'unknown'
p396
aS'unknown'
p397
aS'unknown'
p398
aS'unknown'
p399
aS'unknown'
p400
asg56
g68
sbag1
(g61
g3
NtRp401
(dp402
g64
I01
sg65
Nsg66
(lp403
S'unknown'
p404
aS'unknown'
p405
aS'unknown'
p406
aS'unknown'
p407
aS'unknown'
p408
aS'unknown'
p409
aS'unknown'
p410
aS'unknown'
p411
aS'unknown'
p412
aS'unknown'
p413
aS'unknown'
p414
aS'unknown'
p415
aS'unknown'
p416
aS'unknown'
p417
aS'unknown'
p418
aS'unknown'
p419
aS'unknown'
p420
aS'unknown'
p421
aS'unknown'
p422
aS'unknown'
p423
asg56
g72
sbag1
(g61
g3
NtRp424
(dp425
g64
I01
sg65
Nsg66
(lp426
S'unknown'
p427
aS'unknown'
p428
aS'unknown'
p429
aS'unknown'
p430
aS'unknown'
p431
aS'unknown'
p432
aS'unknown'
p433
aS'unknown'
p434
aS'unknown'
p435
aS'unknown'
p436
aS'unknown'
p437
aS'unknown'
p438
aS'unknown'
p439
aS'unknown'
p440
aS'unknown'
p441
aS'unknown'
p442
aS'unknown'
p443
aS'unknown'
p444
aS'unknown'
p445
aS'unknown'
p446
asg56
g76
sbasg24
(lp447
g1
(g61
g3
NtRp448
(dp449
g64
I01
sg65
Nsg66
(lp450
F68.296640872955322
aF65.787325143814087
aF60.161891937255859
aF67.07532787322998
aF65.234693050384521
aF62.692913055419922
aF64.290866851806641
aF67.805432081222534
aF66.014760971069336
aF62.736661911010742
aF65.411199808120728
aF66.718878030776978
aF66.402359008789062
aF63.373830080032349
aF62.734716176986694
aF66.080061912536621
aF65.916195154190063
aF69.511770009994507
aF66.274632930755615
aF66.548863172531128
asg56
g68
sbag1
(g61
g3
NtRp451
(dp452
g64
I01
sg65
Nsg66
(lp453
F66.636538028717041
aF62.320045948028564
aF61.655267953872681
aF65.701317071914673
aF63.566004037857056
aF61.523938894271851
aF62.678354978561401
aF63.181953907012939
aF65.305891036987305
aF62.979551076889038
aF61.410566091537476
aF62.715972900390625
aF57.431915998458862
aF61.315520048141479
aF62.543710947036743
aF61.904815912246704
aF62.502750873565674
aF55.007308006286621
aF56.267580032348633
aF55.369816064834595
asg56
g72
sbag1
(g61
g3
NtRp454
(dp455
g64
I01
sg65
Nsg66
(lp456
F60.696552038192749
aF60.170295000076294
aF58.492928028106689
aF57.971637964248657
aF58.612857103347778
aF56.835345029830933
aF58.977041006088257
aF56.372224092483521
aF56.089420080184937
aF56.90068507194519
aF60.004262924194336
aF57.56535816192627
aF57.418545007705688
aF55.087946176528931
aF56.454807043075562
aF53.799787998199463
aF56.631081104278564
aF58.823153018951416
aF60.255744934082031
aF56.701897144317627
asg56
g76
sbasg25
(lp457
g1
(g61
g3
NtRp458
(dp459
g64
I01
sg65
Nsg66
(lp460
F1.986831607458452
aF1.5423712602249819
aF3.9802108799336002
aF1.8764267536262176
aF5.1837600921586873
aF6.1719133473539873
aF8.4074362968678216
aF3.6717320366880486
aF4.7015788755788925
aF3.3446465661410421
aF5.1539269934756362
aF4.3402757894372392
aF2.2951533858215205
aF1.0443077831541274
aF2.9410617461767767
aF4.1640624581746017
aF6.5053338368460665
aF11.122496075420148
aF11.843301246252647
aF1.245343027630091
asg56
g68
sbag1
(g61
g3
NtRp461
(dp462
g64
I01
sg65
Nsg66
(lp463
F2.8709722935003761
aF2.6582034643289765
aF1.3401680130595368
aF3.4067394460176157
aF6.2953260671653242
aF0.40830951173558705
aF0.026905936455279729
aF3.6325875097171121
aF6.66331663922844
aF3.9898352166684141
aF4.1104030434916421
aF1.4780962237044104
aF1.766551055133295
aF2.1484733641444667
aF1.6425878433366363
aF3.3492216166011044
aF1.6090042389642603
aF1.4994168314211307
aF4.7439919297000079
aF6.3274786995014018
asg56
g72
sbag1
(g61
g3
NtRp464
(dp465
g64
I01
sg65
Nsg66
(lp466
F11.212746185885008
aF10.251470319490174
aF5.8307363977551345
aF2.044865107830887
aF10.017058748091184
aF5.2911389391400494
aF6.4021893071509846
aF7.3535438965101267
aF13.458882163392886
aF5.8393231957304756
aF5.907734373495293
aF3.5620711028554508
aF1.4479632098057225
aF0.91590010559759283
aF0.72521245699215042
aF5.0263286068143014
aF5.7277989859678442
aF2.2171685000044885
aF3.5708158923492341
aF6.1106487618450078
asg56
g76
sbasg27
(lp467
g1
(g61
g3
NtRp468
(dp469
g64
I01
sg65
Nsg66
(lp470
F15.849660742373874
aF4.6815373810961649
aF2.5097755257335876
aF7.3102898806857652
aF2.1261289890060806
aF5.2515032712569409
aF8.6089919747991317
aF10.879843197046869
aF8.8329937074189413
aF8.9190177180226939
aF8.8748702082819335
aF7.9100678583757063
aF8.3111152085581814
aF11.868489688505793
aF13.551314215006387
aF12.930823605547541
aF10.96913872480965
aF9.1746827928115753
aF7.843176351485134
aF11.463331199901344
asg56
g68
sbag1
(g61
g3
NtRp471
(dp472
g64
I01
sg65
Nsg66
(lp473
F4.7561474790059348
aF3.7471857796978632
aF4.0905243246123444
aF1.9251981812409946
aF4.7755363259911094
aF6.4019899429028113
aF9.2046139758635075
aF4.6276106086946029
aF3.9588274551973814
aF5.0450057696145638
aF2.7216154536203643
aF2.7270805659014723
aF4.850092409802329
aF7.6575891238710341
aF8.5772981543228113
aF4.9398627853886854
aF9.1435249108269705
aF9.2438651123464002
aF7.1521343126197321
aF5.9721130026592064
asg56
g72
sbag1
(g61
g3
NtRp474
(dp475
g64
I01
sg65
Nsg66
(lp476
F23.652030383814935
aF24.128123486418481
aF22.526091213294031
aF24.886828554309851
aF23.614697595278471
aF24.974647861882008
aF21.837664707433447
aF22.935412787190572
aF20.30110747536586
aF22.231042231677684
aF18.516730926399443
aF17.887778395473973
aF14.83616106198177
aF13.20398121166993
aF13.736768244246047
aF8.4586354140592963
aF14.159290984884329
aF13.702425049390605
aF15.771627075989109
aF13.488138223725411
asg56
g76
sbasg29
(lp477
g1
(g61
g3
NtRp478
(dp479
g64
I01
sg65
Nsg66
(lp480
F0.77963390253212839
aF1.107370981778536
aF0.10345368194917443
aF2.4377884564661105
aF1.3062877876133809
aF1.0816638650905814
aF0.73653742096204322
aF2.1263806360783208
aF2.2740555985417377
aF1.7952281466746605
aF1.1078124150616755
aF0.14706584238969317
aF0.44919422528471986
aF2.0859226281662355
aF0.10425351258378639
aF1.4619868144782053
aF2.0355978346041486
aF2.3806227503901791
aF2.7811176750875877
aF0.079679201391932214
asg56
g68
sbag1
(g61
g3
NtRp481
(dp482
g64
I01
sg65
Nsg66
(lp483
F0.50633701985436885
aF2.2987454910181104
aF1.1941480354111291
aF1.5013619141360472
aF0.73149489997987949
aF0.73227028404351857
aF1.4683942966229599
aF1.0919930772054491
aF2.1253151365792222
aF1.0767578779917353
aF0.56362091349911425
aF1.3947422545831865
aF0.46730779150165436
aF1.0435354071666951
aF1.5692033075213003
aF0.52763945815603919
aF2.3516521423625676
aF1.2306883342341415
aF0.7659184805407242
aF1.0982434279357089
asg56
g72
sbag1
(g61
g3
NtRp484
(dp485
g64
I01
sg65
Nsg66
(lp486
F1.4015165364920268
aF2.0921792313591774
aF2.0831951317016468
aF0.3074443281896162
aF1.0887619354290226
aF2.068166510364609
aF0.81432348457406722
aF0.30532381946322834
aF2.9073063241135326
aF1.5008627005116058
aF2.7454150541046265
aF2.4462770542432488
aF1.1768533406800668
aF1.1762095065923617
aF3.1490527251120519
aF0.53009860649012097
aF0.63347711474015711
aF2.1365909778149734
aF2.7174725540150635
aF2.9860068584348292
asg56
g76
sbasg31
(lp487
g1
(g61
g3
NtRp488
(dp489
g64
I01
sg65
Nsg66
(lp490
S'unknown'
p491
aS'unknown'
p492
aS'unknown'
p493
aS'unknown'
p494
aS'unknown'
p495
aS'unknown'
p496
aS'unknown'
p497
aS'unknown'
p498
aS'unknown'
p499
aS'unknown'
p500
aS'unknown'
p501
aS'unknown'
p502
aS'unknown'
p503
aS'unknown'
p504
aS'unknown'
p505
aS'unknown'
p506
aS'unknown'
p507
aS'unknown'
p508
aS'unknown'
p509
aS'unknown'
p510
asg56
g68
sbag1
(g61
g3
NtRp511
(dp512
g64
I01
sg65
Nsg66
(lp513
S'unknown'
p514
aS'unknown'
p515
aS'unknown'
p516
aS'unknown'
p517
aS'unknown'
p518
aS'unknown'
p519
aS'unknown'
p520
aS'unknown'
p521
aS'unknown'
p522
aS'unknown'
p523
aS'unknown'
p524
aS'unknown'
p525
aS'unknown'
p526
aS'unknown'
p527
aS'unknown'
p528
aS'unknown'
p529
aS'unknown'
p530
aS'unknown'
p531
aS'unknown'
p532
aS'unknown'
p533
asg56
g72
sbag1
(g61
g3
NtRp534
(dp535
g64
I01
sg65
Nsg66
(lp536
S'unknown'
p537
aS'unknown'
p538
aS'unknown'
p539
aS'unknown'
p540
aS'unknown'
p541
aS'unknown'
p542
aS'unknown'
p543
aS'unknown'
p544
aS'unknown'
p545
aS'unknown'
p546
aS'unknown'
p547
aS'unknown'
p548
aS'unknown'
p549
aS'unknown'
p550
aS'unknown'
p551
aS'unknown'
p552
aS'unknown'
p553
aS'unknown'
p554
aS'unknown'
p555
aS'unknown'
p556
asg56
g76
sbasg33
(lp557
g1
(g61
g3
NtRp558
(dp559
g64
I01
sg65
Nsg66
(lp560
(lp561
F0
aF1
aF2
aF3
aF4
aF5
aF6
aF7
aF8
aF9
aF10
aF11
aF12
aF13
aF14
aF15
aa(lp562
F0
aF1
aF2
aF3
aF4
aF5
aF6
aF7
aF8
aF9
aF10
aF11
aF12
aF13
aF14
aF15
aa(lp563
F0
aF1
aF2
aF3
aF4
aF5
aF6
aF7
aF8
aF9
aF10
aF11
aF12
aF13
aF14
aF15
aa(lp564
F0
aF1
aF2
aF3
aF4
aF5
aF6
aF7
aF8
aF9
aF10
aF11
aF12
aF13
aF14
aF15
aa(lp565
F0
aF1
aF2
aF3
aF4
aF5
aF6
aF7
aF8
aF9
aF10
aF11
aF12
aF13
aF14
aF15
aa(lp566
F0
aF1
aF2
aF3
aF4
aF5
aF6
aF7
aF8
aF9
aF10
aF11
aF12
aF13
aF14
aF15
aa(lp567
F0
aF1
aF2
aF3
aF4
aF5
aF6
aF7
aF8
aF9
aF10
aF11
aF12
aF13
aF14
aF15
aa(lp568
F0
aF1
aF2
aF3
aF4
aF5
aF6
aF7
aF8
aF9
aF10
aF11
aF12
aF13
aF14
aF15
aa(lp569
F0
aF1
aF2
aF3
aF4
aF5
aF6
aF7
aF8
aF9
aF10
aF11
aF12
aF13
aF14
aF15
aa(lp570
F0
aF1
aF2
aF3
aF4
aF5
aF6
aF7
aF8
aF9
aF10
aF11
aF12
aF13
aF14
aF15
aa(lp571
F0
aF1
aF2
aF3
aF4
aF5
aF6
aF7
aF8
aF9
aF10
aF11
aF12
aF13
aF14
aF15
aa(lp572
F0
aF1
aF2
aF3
aF4
aF5
aF6
aF7
aF8
aF9
aF10
aF11
aF12
aF13
aF14
aF15
aa(lp573
F0
aF1
aF2
aF3
aF4
aF5
aF6
aF7
aF8
aF9
aF10
aF11
aF12
aF13
aF14
aF15
aa(lp574
F0
aF1
aF2
aF3
aF4
aF5
aF6
aF7
aF8
aF9
aF10
aF11
aF12
aF13
aF14
aF15
aa(lp575
F0
aF1
aF2
aF3
aF4
aF5
aF6
aF7
aF8
aF9
aF10
aF11
aF12
aF13
aF14
aF15
aa(lp576
F0
aF1
aF2
aF3
aF4
aF5
aF6
aF7
aF8
aF9
aF10
aF11
aF12
aF13
aF14
aF15
aa(lp577
F0
aF1
aF2
aF3
aF4
aF5
aF6
aF7
aF8
aF9
aF10
aF11
aF12
aF13
aF14
aF15
aa(lp578
F0
aF1
aF2
aF3
aF4
aF5
aF6
aF7
aF8
aF9
aF10
aF11
aF12
aF13
aF14
aF15
aa(lp579
F0
aF1
aF2
aF3
aF4
aF5
aF6
aF7
aF8
aF9
aF10
aF11
aF12
aF13
aF14
aF15
aa(lp580
F0
aF1
aF2
aF3
aF4
aF5
aF6
aF7
aF8
aF9
aF10
aF11
aF12
aF13
aF14
aF15
aasg56
g68
sbag1
(g61
g3
NtRp581
(dp582
g64
I01
sg65
Nsg66
(lp583
(lp584
F0
aF1
aF2
aF3
aF4
aF5
aF6
aF7
aF8
aF9
aF10
aF11
aF12
aF13
aF14
aF15
aa(lp585
F0
aF1
aF2
aF3
aF4
aF5
aF6
aF7
aF8
aF9
aF10
aF11
aF12
aF13
aF14
aF15
aa(lp586
F0
aF1
aF2
aF3
aF4
aF5
aF6
aF7
aF8
aF9
aF10
aF11
aF12
aF13
aF14
aF15
aa(lp587
F0
aF1
aF2
aF3
aF4
aF5
aF6
aF7
aF8
aF9
aF10
aF11
aF12
aF13
aF14
aF15
aa(lp588
F0
aF1
aF2
aF3
aF4
aF5
aF6
aF7
aF8
aF9
aF10
aF11
aF12
aF13
aF14
aF15
aa(lp589
F0
aF1
aF2
aF3
aF4
aF5
aF6
aF7
aF8
aF9
aF10
aF11
aF12
aF13
aF14
aF15
aa(lp590
F0
aF1
aF2
aF3
aF4
aF5
aF6
aF7
aF8
aF9
aF10
aF11
aF12
aF13
aF14
aF15
aa(lp591
F0
aF1
aF2
aF3
aF4
aF5
aF6
aF7
aF8
aF9
aF10
aF11
aF12
aF13
aF14
aF15
aa(lp592
F0
aF1
aF2
aF3
aF4
aF5
aF6
aF7
aF8
aF9
aF10
aF11
aF12
aF13
aF14
aF15
aa(lp593
F0
aF1
aF2
aF3
aF4
aF5
aF6
aF7
aF8
aF9
aF10
aF11
aF12
aF13
aF14
aF15
aa(lp594
F0
aF1
aF2
aF3
aF4
aF5
aF6
aF7
aF8
aF9
aF10
aF11
aF12
aF13
aF14
aF15
aa(lp595
F0
aF1
aF2
aF3
aF4
aF5
aF6
aF7
aF8
aF9
aF10
aF11
aF12
aF13
aF14
aF15
aa(lp596
F0
aF1
aF2
aF3
aF4
aF5
aF6
aF7
aF8
aF9
aF10
aF11
aF12
aF13
aF14
aF15
aa(lp597
F0
aF1
aF2
aF3
aF4
aF5
aF6
aF7
aF8
aF9
aF10
aF11
aF12
aF13
aF14
aF15
aa(lp598
F0
aF1
aF2
aF3
aF4
aF5
aF6
aF7
aF8
aF9
aF10
aF11
aF12
aF13
aF14
aF15
aa(lp599
F0
aF1
aF2
aF3
aF4
aF5
aF6
aF7
aF8
aF9
aF10
aF11
aF12
aF13
aF14
aF15
aa(lp600
F0
aF1
aF2
aF3
aF4
aF5
aF6
aF7
aF8
aF9
aF10
aF11
aF12
aF13
aF14
aF15
aa(lp601
F0
aF1
aF2
aF3
aF4
aF5
aF6
aF7
aF8
aF9
aF10
aF11
aF12
aF13
aF14
aF15
aa(lp602
F0
aF1
aF2
aF3
aF4
aF5
aF6
aF7
aF8
aF9
aF10
aF11
aF12
aF13
aF14
aF15
aa(lp603
F0
aF1
aF2
aF3
aF4
aF5
aF6
aF7
aF8
aF9
aF10
aF11
aF12
aF13
aF14
aF15
aasg56
g72
sbag1
(g61
g3
NtRp604
(dp605
g64
I01
sg65
Nsg66
(lp606
(lp607
F0
aF1
aF2
aF3
aF4
aF5
aF6
aF7
aF8
aF9
aF10
aF11
aF12
aF13
aF14
aF15
aa(lp608
F0
aF1
aF2
aF3
aF4
aF5
aF6
aF7
aF8
aF9
aF10
aF11
aF12
aF13
aF14
aF15
aa(lp609
F0
aF1
aF2
aF3
aF4
aF5
aF6
aF7
aF8
aF9
aF10
aF11
aF12
aF13
aF14
aF15
aa(lp610
F0
aF1
aF2
aF3
aF4
aF5
aF6
aF7
aF8
aF9
aF10
aF11
aF12
aF13
aF14
aF15
aa(lp611
F0
aF1
aF2
aF3
aF4
aF5
aF6
aF7
aF8
aF9
aF10
aF11
aF12
aF13
aF14
aF15
aa(lp612
F0
aF1
aF2
aF3
aF4
aF5
aF6
aF7
aF8
aF9
aF10
aF11
aF12
aF13
aF14
aF15
aa(lp613
F0
aF1
aF2
aF3
aF4
aF5
aF6
aF7
aF8
aF9
aF10
aF11
aF12
aF13
aF14
aF15
aa(lp614
F0
aF1
aF2
aF3
aF4
aF5
aF6
aF7
aF8
aF9
aF10
aF11
aF12
aF13
aF14
aF15
aa(lp615
F0
aF1
aF2
aF3
aF4
aF5
aF6
aF7
aF8
aF9
aF10
aF11
aF12
aF13
aF14
aF15
aa(lp616
F0
aF1
aF2
aF3
aF4
aF5
aF6
aF7
aF8
aF9
aF10
aF11
aF12
aF13
aF14
aF15
aa(lp617
F0
aF1
aF2
aF3
aF4
aF5
aF6
aF7
aF8
aF9
aF10
aF11
aF12
aF13
aF14
aF15
aa(lp618
F0
aF1
aF2
aF3
aF4
aF5
aF6
aF7
aF8
aF9
aF10
aF11
aF12
aF13
aF14
aF15
aa(lp619
F0
aF1
aF2
aF3
aF4
aF5
aF6
aF7
aF8
aF9
aF10
aF11
aF12
aF13
aF14
aF15
aa(lp620
F0
aF1
aF2
aF3
aF4
aF5
aF6
aF7
aF8
aF9
aF10
aF11
aF12
aF13
aF14
aF15
aa(lp621
F0
aF1
aF2
aF3
aF4
aF5
aF6
aF7
aF8
aF9
aF10
aF11
aF12
aF13
aF14
aF15
aa(lp622
F0
aF1
aF2
aF3
aF4
aF5
aF6
aF7
aF8
aF9
aF10
aF11
aF12
aF13
aF14
aF15
aa(lp623
F0
aF1
aF2
aF3
aF4
aF5
aF6
aF7
aF8
aF9
aF10
aF11
aF12
aF13
aF14
aF15
aa(lp624
F0
aF1
aF2
aF3
aF4
aF5
aF6
aF7
aF8
aF9
aF10
aF11
aF12
aF13
aF14
aF15
aa(lp625
F0
aF1
aF2
aF3
aF4
aF5
aF6
aF7
aF8
aF9
aF10
aF11
aF12
aF13
aF14
aF15
aa(lp626
F0
aF1
aF2
aF3
aF4
aF5
aF6
aF7
aF8
aF9
aF10
aF11
aF12
aF13
aF14
aF15
aasg56
g76
sbasg35
(lp627
g1
(g61
g3
NtRp628
(dp629
g64
I01
sg65
Nsg66
(lp630
S'unknown'
p631
aS'unknown'
p632
aS'unknown'
p633
aS'unknown'
p634
aS'unknown'
p635
aS'unknown'
p636
aS'unknown'
p637
aS'unknown'
p638
aS'unknown'
p639
aS'unknown'
p640
aS'unknown'
p641
aS'unknown'
p642
aS'unknown'
p643
aS'unknown'
p644
aS'unknown'
p645
aS'unknown'
p646
aS'unknown'
p647
aS'unknown'
p648
aS'unknown'
p649
aS'unknown'
p650
asg56
g68
sbag1
(g61
g3
NtRp651
(dp652
g64
I01
sg65
Nsg66
(lp653
S'unknown'
p654
aS'unknown'
p655
aS'unknown'
p656
aS'unknown'
p657
aS'unknown'
p658
aS'unknown'
p659
aS'unknown'
p660
aS'unknown'
p661
aS'unknown'
p662
aS'unknown'
p663
aS'unknown'
p664
aS'unknown'
p665
aS'unknown'
p666
aS'unknown'
p667
aS'unknown'
p668
aS'unknown'
p669
aS'unknown'
p670
aS'unknown'
p671
aS'unknown'
p672
aS'unknown'
p673
asg56
g72
sbag1
(g61
g3
NtRp674
(dp675
g64
I01
sg65
Nsg66
(lp676
S'unknown'
p677
aS'unknown'
p678
aS'unknown'
p679
aS'unknown'
p680
aS'unknown'
p681
aS'unknown'
p682
aS'unknown'
p683
aS'unknown'
p684
aS'unknown'
p685
aS'unknown'
p686
aS'unknown'
p687
aS'unknown'
p688
aS'unknown'
p689
aS'unknown'
p690
aS'unknown'
p691
aS'unknown'
p692
aS'unknown'
p693
aS'unknown'
p694
aS'unknown'
p695
aS'unknown'
p696
asg56
g76
sbassS'data'
p697
(lp698
(S'(move 6 0 0)'
I0
tp699
a(S'(move 6 2 0)'
I0
tp700
a(S'(move 6 3 0)'
I0
tp701
a(S'(move 6 5 0)'
I0
tp702
a(S'(move 6 7 0)'
I6
tp703
a(S'(move 6 8 6)'
I6
tp704
a(S'(move 6 10 6)'
I6
tp705
a(S'(move 6 11 6)'
I6
tp706
a(S'(move 6 13 6)'
I11
tp707
a(S'(move 6 16 11)'
I15
tp708
a(S'(move 6 17 15)'
I15
tp709
a(S'(move 6 18 15)'
I15
tp710
asb.