ccopy_reg
_reconstructor
p1
(cventure.unit.history
History
p2
c__builtin__
object
p3
NtRp4
(dp5
S'nameToType'
p6
(dp7
S'logscore'
p8
S'number'
p9
sS'phi'
p10
S'sp'
p11
sS'scale'
p12
S'number'
p13
sS'features'
p14
S'dict'
p15
sS'move'
p16
S'sp'
p17
sS'hypers3'
p18
S'number'
p19
sS'sweep_iters'
p20
S'count'
p21
sS'observe_birds'
p22
S'sp'
p23
sS'sweep time (s)'
p24
g21
sS'count_birds'
p25
S'sp'
p26
sS'hypers0'
p27
S'number'
p28
sS'hypers1'
p29
S'number'
p30
sS'hypers2'
p31
S'number'
p32
sS'get_bird_move_dist'
p33
S'sp'
p34
sS'cell_array'
p35
S'array'
p36
sS'get_bird_pos'
p37
S'sp'
p38
ssS'parameters'
p39
(dp40
S'venture_random_seed'
p41
I0
sS'cells'
p42
I16
sS'days'
p43
(lp44
I0
aI1
aI2
aI3
aI4
aI5
aI6
aI7
aI8
aI9
aI10
aI11
aI12
aI13
aI14
aI15
aI16
aI17
aI18
aI19
asS'name'
p45
S'onebird'
p46
sS'years'
p47
(lp48
I9
assS'hypers'
p49
(lp50
cnumpy.core.multiarray
scalar
p51
(cnumpy
dtype
p52
(S'f8'
I0
I1
tRp53
(I3
S'<'
NNNI-1
I-1
I0
tbS'Z)/\x1a\xdf\xc9\xc9\xbf'
tRp54
ag51
(g53
S'\x1ess\xbc\x85\xc2\xf0?'
tRp55
ag51
(g53
S'\x9a\x02\x1d,gQ\x0f@'
tRp56
ag51
(g53
S'\x08\xf7`\x1f\x18D\t@'
tRp57
asS'label'
p58
S'run_from_conditional'
p59
sS'nameToSeries'
p60
(dp61
g8
(lp62
g1
(cventure.unit.history
Series
p63
g3
NtRp64
(dp65
S'hist'
p66
I01
sS'_xvals'
p67
NsS'values'
p68
(lp69
F-52.590345313315282
aF-44.117012860249872
aF-42.838932651617768
aF-35.267802618616628
aF-33.924274468967603
aF-33.697918735661574
aF-34.584403892667211
aF-36.123864127490187
aF-40.170981206684786
aF-29.765622302642278
aF-36.689511986176157
aF-39.385235841029008
aF-32.136586379462052
aF-28.151829194180767
aF-28.077446908614064
aF-33.249117545209785
aF-30.383454140136454
aF-24.499223305827115
aF-25.540871965223399
aF-28.362626420123753
asg58
S'run 0'
p70
sbasg10
(lp71
g1
(g63
g3
NtRp72
(dp73
g66
I01
sg67
Nsg68
(lp74
S'unknown'
p75
aS'unknown'
p76
aS'unknown'
p77
aS'unknown'
p78
aS'unknown'
p79
aS'unknown'
p80
aS'unknown'
p81
aS'unknown'
p82
aS'unknown'
p83
aS'unknown'
p84
aS'unknown'
p85
aS'unknown'
p86
aS'unknown'
p87
aS'unknown'
p88
aS'unknown'
p89
aS'unknown'
p90
aS'unknown'
p91
aS'unknown'
p92
aS'unknown'
p93
aS'unknown'
p94
asg58
g70
sbasg12
(lp95
g1
(g63
g3
NtRp96
(dp97
g66
I01
sg67
Nsg68
(lp98
F0.66204705713761236
aF0.66204705713761236
aF0.66204705713761236
aF0.66204705713761236
aF0.47867803839651879
aF0.47867803839651879
aF0.47867803839651879
aF0.47867803839651879
aF0.47867803839651879
aF0.47867803839651879
aF0.47867803839651879
aF0.47867803839651879
aF0.47867803839651879
aF0.47867803839651879
aF0.47867803839651879
aF0.34594423764982146
aF0.34594423764982146
aF0.34594423764982146
aF0.34594423764982146
aF0.34594423764982146
asg58
g70
sbasg14
(lp99
g1
(g63
g3
NtRp100
(dp101
g66
I01
sg67
Nsg68
(lp102
S'opaque'
p103
aS'opaque'
p104
aS'opaque'
p105
aS'opaque'
p106
aS'opaque'
p107
aS'opaque'
p108
aS'opaque'
p109
aS'opaque'
p110
aS'opaque'
p111
aS'opaque'
p112
aS'opaque'
p113
aS'opaque'
p114
aS'opaque'
p115
aS'opaque'
p116
aS'opaque'
p117
aS'opaque'
p118
aS'opaque'
p119
aS'opaque'
p120
aS'opaque'
p121
aS'opaque'
p122
asg58
g70
sbasg16
(lp123
g1
(g63
g3
NtRp124
(dp125
g66
I01
sg67
Nsg68
(lp126
S'unknown'
p127
aS'unknown'
p128
aS'unknown'
p129
aS'unknown'
p130
aS'unknown'
p131
aS'unknown'
p132
aS'unknown'
p133
aS'unknown'
p134
aS'unknown'
p135
aS'unknown'
p136
aS'unknown'
p137
aS'unknown'
p138
aS'unknown'
p139
aS'unknown'
p140
aS'unknown'
p141
aS'unknown'
p142
aS'unknown'
p143
aS'unknown'
p144
aS'unknown'
p145
aS'unknown'
p146
asg58
g70
sbasg18
(lp147
g1
(g63
g3
NtRp148
(dp149
g66
I01
sg67
Nsg68
(lp150
F2.5703991709281633
aF2.6531851924263847
aF2.6531851924263847
aF2.6531851924263847
aF1.9183250944492405
aF1.9183250944492405
aF1.9183250944492405
aF1.9183250944492405
aF1.9183250944492405
aF1.9183250944492405
aF1.9183250944492405
aF1.9183250944492405
aF1.9183250944492405
aF4.0303123085952439
aF4.3700236519472169
aF3.1582491351572379
aF3.1582491351572379
aF3.1582491351572379
aF3.1582491351572379
aF3.1582491351572379
asg58
g70
sbasg20
(lp151
g1
(g63
g3
NtRp152
(dp153
g66
I01
sg67
Nsg68
(lp154
I24
aI17
aI17
aI17
aI17
aI17
aI17
aI17
aI17
aI17
aI17
aI17
aI17
aI17
aI17
aI17
aI17
aI17
aI17
aI17
asg58
g70
sbasg22
(lp155
g1
(g63
g3
NtRp156
(dp157
g66
I01
sg67
Nsg68
(lp158
S'unknown'
p159
aS'unknown'
p160
aS'unknown'
p161
aS'unknown'
p162
aS'unknown'
p163
aS'unknown'
p164
aS'unknown'
p165
aS'unknown'
p166
aS'unknown'
p167
aS'unknown'
p168
aS'unknown'
p169
aS'unknown'
p170
aS'unknown'
p171
aS'unknown'
p172
aS'unknown'
p173
aS'unknown'
p174
aS'unknown'
p175
aS'unknown'
p176
aS'unknown'
p177
aS'unknown'
p178
asg58
g70
sbasg24
(lp179
g1
(g63
g3
NtRp180
(dp181
g66
I01
sg67
Nsg68
(lp182
F30.388582944869995
aF29.133573055267334
aF27.751045942306519
aF29.621782064437866
aF28.362663984298706
aF28.404901027679443
aF27.994749069213867
aF24.945604085922241
aF26.283833026885986
aF25.795156002044678
aF21.912979125976562
aF20.114853858947754
aF19.307650089263916
aF16.79285192489624
aF16.527491807937622
aF15.610427856445312
aF14.758978843688965
aF14.936695098876953
aF14.886486768722534
aF14.394365072250366
asg58
g70
sbasg25
(lp183
g1
(g63
g3
NtRp184
(dp185
g66
I01
sg67
Nsg68
(lp186
S'unknown'
p187
aS'unknown'
p188
aS'unknown'
p189
aS'unknown'
p190
aS'unknown'
p191
aS'unknown'
p192
aS'unknown'
p193
aS'unknown'
p194
aS'unknown'
p195
aS'unknown'
p196
aS'unknown'
p197
aS'unknown'
p198
aS'unknown'
p199
aS'unknown'
p200
aS'unknown'
p201
aS'unknown'
p202
aS'unknown'
p203
aS'unknown'
p204
aS'unknown'
p205
aS'unknown'
p206
asg58
g70
sbasg27
(lp207
g1
(g63
g3
NtRp208
(dp209
g66
I01
sg67
Nsg68
(lp210
F-5.6406999208800803
aF-5.6406999208800803
aF-2.288787074594834
aF-2.288787074594834
aF-1.6548553390014289
aF-1.6548553390014289
aF-2.0003466951258302
aF-2.0003466951258302
aF-2.0003466951258302
aF-2.0003466951258302
aF-2.0003466951258302
aF-2.0003466951258302
aF-2.0003466951258302
aF1.9558046908088145
aF1.9558046908088145
aF1.413474837952208
aF1.413474837952208
aF1.413474837952208
aF1.413474837952208
aF-0.20147312906767462
asg58
g70
sbasg29
(lp211
g1
(g63
g3
NtRp212
(dp213
g66
I01
sg67
Nsg68
(lp214
F6.2630975813397054
aF6.2630975813397054
aF6.2630975813397054
aF6.2630975813397054
aF4.528389987085931
aF4.528389987085931
aF4.528389987085931
aF4.6620231395434306
aF4.6620231395434306
aF4.6620231395434306
aF4.6620231395434306
aF4.6620231395434306
aF4.6620231395434306
aF4.6620231395434306
aF4.6620231395434306
aF3.3692793726609129
aF2.8333950701198236
aF1.2125304338676559
aF0.57454238313284078
aF1.047490821968672
asg58
g70
sbasg31
(lp215
g1
(g63
g3
NtRp216
(dp217
g66
I01
sg67
Nsg68
(lp218
F-2.2365793813278341
aF-2.2365793813278341
aF2.779483257149503
aF2.779483257149503
aF2.0096420321550337
aF1.415299977700571
aF1.415299977700571
aF1.415299977700571
aF1.415299977700571
aF1.415299977700571
aF1.415299977700571
aF5.4167795909469847
aF5.4167795909469847
aF5.4167795909469847
aF5.4167795909469847
aF3.9147475668290328
aF3.9147475668290328
aF3.9147475668290328
aF3.9147475668290328
aF3.9147475668290328
asg58
g70
sbasg33
(lp219
g1
(g63
g3
NtRp220
(dp221
g66
I01
sg67
Nsg68
(lp222
S'unknown'
p223
aS'unknown'
p224
aS'unknown'
p225
aS'unknown'
p226
aS'unknown'
p227
aS'unknown'
p228
aS'unknown'
p229
aS'unknown'
p230
aS'unknown'
p231
aS'unknown'
p232
aS'unknown'
p233
aS'unknown'
p234
aS'unknown'
p235
aS'unknown'
p236
aS'unknown'
p237
aS'unknown'
p238
aS'unknown'
p239
aS'unknown'
p240
aS'unknown'
p241
aS'unknown'
p242
asg58
g70
sbasg35
(lp243
g1
(g63
g3
NtRp244
(dp245
g66
I01
sg67
Nsg68
(lp246
(lp247
F0
aF1
aF2
aF3
aF4
aF5
aF6
aF7
aF8
aF9
aF10
aF11
aF12
aF13
aF14
aF15
aa(lp248
F0
aF1
aF2
aF3
aF4
aF5
aF6
aF7
aF8
aF9
aF10
aF11
aF12
aF13
aF14
aF15
aa(lp249
F0
aF1
aF2
aF3
aF4
aF5
aF6
aF7
aF8
aF9
aF10
aF11
aF12
aF13
aF14
aF15
aa(lp250
F0
aF1
aF2
aF3
aF4
aF5
aF6
aF7
aF8
aF9
aF10
aF11
aF12
aF13
aF14
aF15
aa(lp251
F0
aF1
aF2
aF3
aF4
aF5
aF6
aF7
aF8
aF9
aF10
aF11
aF12
aF13
aF14
aF15
aa(lp252
F0
aF1
aF2
aF3
aF4
aF5
aF6
aF7
aF8
aF9
aF10
aF11
aF12
aF13
aF14
aF15
aa(lp253
F0
aF1
aF2
aF3
aF4
aF5
aF6
aF7
aF8
aF9
aF10
aF11
aF12
aF13
aF14
aF15
aa(lp254
F0
aF1
aF2
aF3
aF4
aF5
aF6
aF7
aF8
aF9
aF10
aF11
aF12
aF13
aF14
aF15
aa(lp255
F0
aF1
aF2
aF3
aF4
aF5
aF6
aF7
aF8
aF9
aF10
aF11
aF12
aF13
aF14
aF15
aa(lp256
F0
aF1
aF2
aF3
aF4
aF5
aF6
aF7
aF8
aF9
aF10
aF11
aF12
aF13
aF14
aF15
aa(lp257
F0
aF1
aF2
aF3
aF4
aF5
aF6
aF7
aF8
aF9
aF10
aF11
aF12
aF13
aF14
aF15
aa(lp258
F0
aF1
aF2
aF3
aF4
aF5
aF6
aF7
aF8
aF9
aF10
aF11
aF12
aF13
aF14
aF15
aa(lp259
F0
aF1
aF2
aF3
aF4
aF5
aF6
aF7
aF8
aF9
aF10
aF11
aF12
aF13
aF14
aF15
aa(lp260
F0
aF1
aF2
aF3
aF4
aF5
aF6
aF7
aF8
aF9
aF10
aF11
aF12
aF13
aF14
aF15
aa(lp261
F0
aF1
aF2
aF3
aF4
aF5
aF6
aF7
aF8
aF9
aF10
aF11
aF12
aF13
aF14
aF15
aa(lp262
F0
aF1
aF2
aF3
aF4
aF5
aF6
aF7
aF8
aF9
aF10
aF11
aF12
aF13
aF14
aF15
aa(lp263
F0
aF1
aF2
aF3
aF4
aF5
aF6
aF7
aF8
aF9
aF10
aF11
aF12
aF13
aF14
aF15
aa(lp264
F0
aF1
aF2
aF3
aF4
aF5
aF6
aF7
aF8
aF9
aF10
aF11
aF12
aF13
aF14
aF15
aa(lp265
F0
aF1
aF2
aF3
aF4
aF5
aF6
aF7
aF8
aF9
aF10
aF11
aF12
aF13
aF14
aF15
aa(lp266
F0
aF1
aF2
aF3
aF4
aF5
aF6
aF7
aF8
aF9
aF10
aF11
aF12
aF13
aF14
aF15
aasg58
g70
sbasg37
(lp267
g1
(g63
g3
NtRp268
(dp269
g66
I01
sg67
Nsg68
(lp270
S'unknown'
p271
aS'unknown'
p272
aS'unknown'
p273
aS'unknown'
p274
aS'unknown'
p275
aS'unknown'
p276
aS'unknown'
p277
aS'unknown'
p278
aS'unknown'
p279
aS'unknown'
p280
aS'unknown'
p281
aS'unknown'
p282
aS'unknown'
p283
aS'unknown'
p284
aS'unknown'
p285
aS'unknown'
p286
aS'unknown'
p287
aS'unknown'
p288
aS'unknown'
p289
aS'unknown'
p290
asg58
g70
sbassS'data'
p291
(lp292
(S'(get_bird_pos 9 2)'
I4
tp293
a(S'(get_bird_pos 9 3)'
I4
tp294
a(S'(get_bird_pos 9 4)'
I11
tp295
a(S'(get_bird_pos 9 13)'
I11
tp296
a(S'(get_bird_pos 9 15)'
I11
tp297
a(S'(get_bird_pos 9 17)'
I11
tp298
a(S'(get_bird_pos 9 19)'
I11
tp299
asb.