ccopy_reg
_reconstructor
p1
(cventure.unit.history
History
p2
c__builtin__
object
p3
NtRp4
(dp5
S'nameToType'
p6
(dp7
S'logscore'
p8
S'number'
p9
sS'phi'
p10
S'sp'
p11
sS'scale'
p12
S'number'
p13
sS'features'
p14
S'dict'
p15
sS'move'
p16
S'sp'
p17
sS'hypers3'
p18
S'number'
p19
sS'sweep_iters'
p20
S'count'
p21
sS'observe_birds'
p22
S'sp'
p23
sS'sweep time (s)'
p24
g21
sS'count_birds'
p25
S'sp'
p26
sS'hypers0'
p27
S'number'
p28
sS'hypers1'
p29
S'number'
p30
sS'hypers2'
p31
S'number'
p32
sS'get_bird_move_dist'
p33
S'sp'
p34
sS'cell_array'
p35
S'array'
p36
sS'get_bird_pos'
p37
S'sp'
p38
ssS'parameters'
p39
(dp40
S'venture_random_seed'
p41
I0
sS'cells'
p42
I16
sS'days'
p43
(lp44
I0
aI1
aI2
aI3
aI4
aI5
aI6
aI7
aI8
aI9
aI10
aI11
aI12
aI13
aI14
aI15
aI16
aI17
aI18
aI19
asS'name'
p45
S'onebird'
p46
sS'years'
p47
(lp48
I11
assS'hypers'
p49
(lp50
cnumpy.core.multiarray
scalar
p51
(cnumpy
dtype
p52
(S'f8'
I0
I1
tRp53
(I3
S'<'
NNNI-1
I-1
I0
tbS'\xa8\x89\xd4:\xc2E-\xc0'
tRp54
ag51
(g53
S'\x85\xe8\xadS@V*@'
tRp55
ag51
(g53
S'\x98\x94\xff\x94\xf3\xbf\x05@'
tRp56
ag51
(g53
S'\xcbz\xf5V\x9fJ\xb3?'
tRp57
asS'label'
p58
S'run_from_conditional'
p59
sS'nameToSeries'
p60
(dp61
g8
(lp62
g1
(cventure.unit.history
Series
p63
g3
NtRp64
(dp65
S'hist'
p66
I01
sS'_xvals'
p67
NsS'values'
p68
(lp69
F-414.14074264600464
aF-188.8632911663683
aF-87.155973104316118
aF-87.52768400472624
aF-65.668563715521657
aF-52.900288692132612
aF-39.48408675320502
aF-40.038477904735345
aF-36.041344266531937
aF-35.996894762450786
aF-35.780336481391203
aF-36.320877664615658
aF-38.292937923519887
aF-36.327679383042891
aF-35.087489785646639
aF-34.947000557354436
aF-34.603359477861297
aF-34.894241035589246
aF-33.820837331149377
aF-31.66816257156712
asg58
S'run 0'
p70
sbasg10
(lp71
g1
(g63
g3
NtRp72
(dp73
g66
I01
sg67
Nsg68
(lp74
S'unknown'
p75
aS'unknown'
p76
aS'unknown'
p77
aS'unknown'
p78
aS'unknown'
p79
aS'unknown'
p80
aS'unknown'
p81
aS'unknown'
p82
aS'unknown'
p83
aS'unknown'
p84
aS'unknown'
p85
aS'unknown'
p86
aS'unknown'
p87
aS'unknown'
p88
aS'unknown'
p89
aS'unknown'
p90
aS'unknown'
p91
aS'unknown'
p92
aS'unknown'
p93
aS'unknown'
p94
asg58
g70
sbasg12
(lp95
g1
(g63
g3
NtRp96
(dp97
g66
I01
sg67
Nsg68
(lp98
F1.6024145016993356
aF1.6024145016993356
aF2.6443299871882631
aF2.6443299871882631
aF0.51245677936282963
aF0.51245677936282963
aF0.51245677936282963
aF0.51245677936282963
aF0.51245677936282963
aF0.47556961309291396
aF0.47556961309291396
aF0.49263723925932856
aF0.49263723925932856
aF0.49263723925932856
aF0.75877717085763596
aF0.75877717085763596
aF0.75877717085763596
aF0.75877717085763596
aF0.75877717085763596
aF0.75877717085763596
asg58
g70
sbasg14
(lp99
g1
(g63
g3
NtRp100
(dp101
g66
I01
sg67
Nsg68
(lp102
S'opaque'
p103
aS'opaque'
p104
aS'opaque'
p105
aS'opaque'
p106
aS'opaque'
p107
aS'opaque'
p108
aS'opaque'
p109
aS'opaque'
p110
aS'opaque'
p111
aS'opaque'
p112
aS'opaque'
p113
aS'opaque'
p114
aS'opaque'
p115
aS'opaque'
p116
aS'opaque'
p117
aS'opaque'
p118
aS'opaque'
p119
aS'opaque'
p120
aS'opaque'
p121
aS'opaque'
p122
asg58
g70
sbasg16
(lp123
g1
(g63
g3
NtRp124
(dp125
g66
I01
sg67
Nsg68
(lp126
S'unknown'
p127
aS'unknown'
p128
aS'unknown'
p129
aS'unknown'
p130
aS'unknown'
p131
aS'unknown'
p132
aS'unknown'
p133
aS'unknown'
p134
aS'unknown'
p135
aS'unknown'
p136
aS'unknown'
p137
aS'unknown'
p138
aS'unknown'
p139
aS'unknown'
p140
aS'unknown'
p141
aS'unknown'
p142
aS'unknown'
p143
aS'unknown'
p144
aS'unknown'
p145
aS'unknown'
p146
asg58
g70
sbasg18
(lp147
g1
(g63
g3
NtRp148
(dp149
g66
I01
sg67
Nsg68
(lp150
F-18.637655699501678
aF-15.67322338020821
aF-25.86420338572373
aF-16.247756807763455
aF-2.5782601179350886
aF-2.5782601179350886
aF-1.5180468343621765
aF-1.5180468343621765
aF-1.5180468343621765
aF-1.4087762612335299
aF-1.4087762612335299
aF-1.4593355608962597
aF-1.4593355608962597
aF-1.4593355608962597
aF-2.24771986359299
aF-2.24771986359299
aF-2.24771986359299
aF-2.24771986359299
aF-2.24771986359299
aF0.075357397775842092
asg58
g70
sbasg20
(lp151
g1
(g63
g3
NtRp152
(dp153
g66
I01
sg67
Nsg68
(lp154
I24
aI8
aI8
aI8
aI8
aI8
aI8
aI8
aI8
aI8
aI8
aI8
aI8
aI8
aI8
aI8
aI8
aI8
aI8
aI8
asg58
g70
sbasg22
(lp155
g1
(g63
g3
NtRp156
(dp157
g66
I01
sg67
Nsg68
(lp158
S'unknown'
p159
aS'unknown'
p160
aS'unknown'
p161
aS'unknown'
p162
aS'unknown'
p163
aS'unknown'
p164
aS'unknown'
p165
aS'unknown'
p166
aS'unknown'
p167
aS'unknown'
p168
aS'unknown'
p169
aS'unknown'
p170
aS'unknown'
p171
aS'unknown'
p172
aS'unknown'
p173
aS'unknown'
p174
aS'unknown'
p175
aS'unknown'
p176
aS'unknown'
p177
aS'unknown'
p178
asg58
g70
sbasg24
(lp179
g1
(g63
g3
NtRp180
(dp181
g66
I01
sg67
Nsg68
(lp182
F13.582370042800903
aF8.0374791622161865
aF8.9444451332092285
aF8.4203639030456543
aF9.9037051200866699
aF9.4121589660644531
aF9.5247130393981934
aF9.8789911270141602
aF10.005581140518188
aF9.7020580768585205
aF8.53814697265625
aF10.25896692276001
aF9.4157419204711914
aF10.366499185562134
aF9.4796710014343262
aF10.336846113204956
aF9.8061327934265137
aF11.451256990432739
aF11.105683088302612
aF7.8638029098510742
asg58
g70
sbasg25
(lp183
g1
(g63
g3
NtRp184
(dp185
g66
I01
sg67
Nsg68
(lp186
S'unknown'
p187
aS'unknown'
p188
aS'unknown'
p189
aS'unknown'
p190
aS'unknown'
p191
aS'unknown'
p192
aS'unknown'
p193
aS'unknown'
p194
aS'unknown'
p195
aS'unknown'
p196
aS'unknown'
p197
aS'unknown'
p198
aS'unknown'
p199
aS'unknown'
p200
aS'unknown'
p201
aS'unknown'
p202
aS'unknown'
p203
aS'unknown'
p204
aS'unknown'
p205
aS'unknown'
p206
asg58
g70
sbasg27
(lp207
g1
(g63
g3
NtRp208
(dp209
g66
I01
sg67
Nsg68
(lp210
F-18.467974087365334
aF-29.930387940221269
aF-49.391603904340698
aF-49.391603904340698
aF-9.5718243891702972
aF-9.5718243891702972
aF-9.5718243891702972
aF-9.5718243891702972
aF-9.5718243891702972
aF-8.8828346207282394
aF-8.8828346207282394
aF-9.2016289600441414
aF-9.2016289600441414
aF-9.2016289600441414
aF-14.172671964631171
aF-14.172671964631171
aF-14.172671964631171
aF-14.172671964631171
aF-14.636247480816408
aF-14.636247480816408
asg58
g70
sbasg29
(lp211
g1
(g63
g3
NtRp212
(dp213
g66
I01
sg67
Nsg68
(lp214
F13.874428365573605
aF13.874428365573605
aF22.895803141617893
aF22.895803141617893
aF4.4370822082439005
aF2.9470746684818399
aF2.9470746684818399
aF2.9470746684818399
aF2.9470746684818399
aF2.7349412014579255
aF2.7349412014579255
aF2.833094979009076
aF2.833094979009076
aF2.833094979009076
aF4.3636323477605918
aF4.3636323477605918
aF6.4670671138499154
aF6.4670671138499154
aF6.4670671138499154
aF13.168459525088346
asg58
g70
sbasg31
(lp215
g1
(g63
g3
NtRp216
(dp217
g66
I01
sg67
Nsg68
(lp218
F11.947706930127248
aF11.947706930127248
aF7.5160618217004078
aF7.5160618217004078
aF1.4565719306220213
aF2.067418395070173
aF2.067418395070173
aF2.9507257735998125
aF2.9507257735998125
aF2.7383294962727089
aF2.7383294962727089
aF2.8366048756832893
aF1.7651372199409767
aF1.7651372199409767
aF2.7187263145920717
aF2.7187263145920717
aF2.7187263145920717
aF2.7187263145920717
aF2.7187263145920717
aF2.7187263145920717
asg58
g70
sbasg33
(lp219
g1
(g63
g3
NtRp220
(dp221
g66
I01
sg67
Nsg68
(lp222
S'unknown'
p223
aS'unknown'
p224
aS'unknown'
p225
aS'unknown'
p226
aS'unknown'
p227
aS'unknown'
p228
aS'unknown'
p229
aS'unknown'
p230
aS'unknown'
p231
aS'unknown'
p232
aS'unknown'
p233
aS'unknown'
p234
aS'unknown'
p235
aS'unknown'
p236
aS'unknown'
p237
aS'unknown'
p238
aS'unknown'
p239
aS'unknown'
p240
aS'unknown'
p241
aS'unknown'
p242
asg58
g70
sbasg35
(lp243
g1
(g63
g3
NtRp244
(dp245
g66
I01
sg67
Nsg68
(lp246
(lp247
F0
aF1
aF2
aF3
aF4
aF5
aF6
aF7
aF8
aF9
aF10
aF11
aF12
aF13
aF14
aF15
aa(lp248
F0
aF1
aF2
aF3
aF4
aF5
aF6
aF7
aF8
aF9
aF10
aF11
aF12
aF13
aF14
aF15
aa(lp249
F0
aF1
aF2
aF3
aF4
aF5
aF6
aF7
aF8
aF9
aF10
aF11
aF12
aF13
aF14
aF15
aa(lp250
F0
aF1
aF2
aF3
aF4
aF5
aF6
aF7
aF8
aF9
aF10
aF11
aF12
aF13
aF14
aF15
aa(lp251
F0
aF1
aF2
aF3
aF4
aF5
aF6
aF7
aF8
aF9
aF10
aF11
aF12
aF13
aF14
aF15
aa(lp252
F0
aF1
aF2
aF3
aF4
aF5
aF6
aF7
aF8
aF9
aF10
aF11
aF12
aF13
aF14
aF15
aa(lp253
F0
aF1
aF2
aF3
aF4
aF5
aF6
aF7
aF8
aF9
aF10
aF11
aF12
aF13
aF14
aF15
aa(lp254
F0
aF1
aF2
aF3
aF4
aF5
aF6
aF7
aF8
aF9
aF10
aF11
aF12
aF13
aF14
aF15
aa(lp255
F0
aF1
aF2
aF3
aF4
aF5
aF6
aF7
aF8
aF9
aF10
aF11
aF12
aF13
aF14
aF15
aa(lp256
F0
aF1
aF2
aF3
aF4
aF5
aF6
aF7
aF8
aF9
aF10
aF11
aF12
aF13
aF14
aF15
aa(lp257
F0
aF1
aF2
aF3
aF4
aF5
aF6
aF7
aF8
aF9
aF10
aF11
aF12
aF13
aF14
aF15
aa(lp258
F0
aF1
aF2
aF3
aF4
aF5
aF6
aF7
aF8
aF9
aF10
aF11
aF12
aF13
aF14
aF15
aa(lp259
F0
aF1
aF2
aF3
aF4
aF5
aF6
aF7
aF8
aF9
aF10
aF11
aF12
aF13
aF14
aF15
aa(lp260
F0
aF1
aF2
aF3
aF4
aF5
aF6
aF7
aF8
aF9
aF10
aF11
aF12
aF13
aF14
aF15
aa(lp261
F0
aF1
aF2
aF3
aF4
aF5
aF6
aF7
aF8
aF9
aF10
aF11
aF12
aF13
aF14
aF15
aa(lp262
F0
aF1
aF2
aF3
aF4
aF5
aF6
aF7
aF8
aF9
aF10
aF11
aF12
aF13
aF14
aF15
aa(lp263
F0
aF1
aF2
aF3
aF4
aF5
aF6
aF7
aF8
aF9
aF10
aF11
aF12
aF13
aF14
aF15
aa(lp264
F0
aF1
aF2
aF3
aF4
aF5
aF6
aF7
aF8
aF9
aF10
aF11
aF12
aF13
aF14
aF15
aa(lp265
F0
aF1
aF2
aF3
aF4
aF5
aF6
aF7
aF8
aF9
aF10
aF11
aF12
aF13
aF14
aF15
aa(lp266
F0
aF1
aF2
aF3
aF4
aF5
aF6
aF7
aF8
aF9
aF10
aF11
aF12
aF13
aF14
aF15
aasg58
g70
sbasg37
(lp267
g1
(g63
g3
NtRp268
(dp269
g66
I01
sg67
Nsg68
(lp270
S'unknown'
p271
aS'unknown'
p272
aS'unknown'
p273
aS'unknown'
p274
aS'unknown'
p275
aS'unknown'
p276
aS'unknown'
p277
aS'unknown'
p278
aS'unknown'
p279
aS'unknown'
p280
aS'unknown'
p281
aS'unknown'
p282
aS'unknown'
p283
aS'unknown'
p284
aS'unknown'
p285
aS'unknown'
p286
aS'unknown'
p287
aS'unknown'
p288
aS'unknown'
p289
aS'unknown'
p290
asg58
g70
sbassS'data'
p291
(lp292
(S'(get_bird_pos 11 1)'
I6
tp293
a(S'(get_bird_pos 11 2)'
I6
tp294
a(S'(get_bird_pos 11 3)'
I11
tp295
a(S'(get_bird_pos 11 4)'
I11
tp296
a(S'(get_bird_pos 11 5)'
I11
tp297
a(S'(get_bird_pos 11 6)'
I11
tp298
a(S'(get_bird_pos 11 8)'
I11
tp299
a(S'(get_bird_pos 11 9)'
I11
tp300
a(S'(get_bird_pos 11 10)'
I11
tp301
a(S'(get_bird_pos 11 11)'
I11
tp302
a(S'(get_bird_pos 11 13)'
I15
tp303
a(S'(get_bird_pos 11 14)'
I15
tp304
a(S'(get_bird_pos 11 15)'
I15
tp305
a(S'(get_bird_pos 11 16)'
I15
tp306
a(S'(get_bird_pos 11 18)'
I15
tp307
a(S'(get_bird_pos 11 19)'
I15
tp308
asb.