ccopy_reg
_reconstructor
p1
(cventure.unit.history
History
p2
c__builtin__
object
p3
NtRp4
(dp5
S'nameToType'
p6
(dp7
S'logscore'
p8
S'number'
p9
sS'phi'
p10
S'sp'
p11
sS'count_birds'
p12
S'sp'
p13
sS'features'
p14
S'dict'
p15
sS'move'
p16
S'sp'
p17
sS'hypers3'
p18
S'number'
p19
sS'sweep_iters'
p20
S'count'
p21
sS'observe_birds'
p22
S'sp'
p23
sS'sweep time (s)'
p24
g21
sS'hypers0'
p25
S'number'
p26
sS'hypers1'
p27
S'number'
p28
sS'hypers2'
p29
S'number'
p30
sS'get_bird_move_dist'
p31
S'sp'
p32
sS'cell_array'
p33
S'array'
p34
sS'get_bird_pos'
p35
S'sp'
p36
ssS'parameters'
p37
(dp38
S'venture_random_seed'
p39
I0
sS'cells'
p40
I16
sS'days'
p41
(lp42
I0
aI1
aI2
aI3
aI4
aI5
aI6
aI7
aI8
aI9
aI10
aI11
aI12
aI13
aI14
aI15
aI16
aI17
aI18
aI19
asS'name'
p43
S'onebird'
p44
sS'years'
p45
(lp46
I26
assS'hypers'
p47
(lp48
cnumpy.core.multiarray
scalar
p49
(cnumpy
dtype
p50
(S'f8'
I0
I1
tRp51
(I3
S'<'
NNNI-1
I-1
I0
tbS'u$\x8cp\xc8\xb8;\xc0'
tRp52
ag49
(g51
S'\x13\xa3\xa8\x8f\x19\xd6\x00@'
tRp53
ag49
(g51
S'\x00\xe5\x1c\t\xf9\xfa\xca\xbf'
tRp54
ag49
(g51
S'\xd4K\xe3P\xd8\x97\x17\xc0'
tRp55
asS'label'
p56
S'run_from_conditional'
p57
sS'nameToSeries'
p58
(dp59
g8
(lp60
g1
(cventure.unit.history
Series
p61
g3
NtRp62
(dp63
S'hist'
p64
I01
sS'_xvals'
p65
NsS'values'
p66
(lp67
F-264.54299331951785
aF-145.67198658930582
aF-106.85231524710559
aF-89.465141243194452
aF-84.269812896465211
aF-75.003296639474001
aF-66.253095409542794
aF-59.319119973473391
aF-58.483203348196909
aF-57.947266030797067
aF-64.798664159296919
aF-63.778653895606475
aF-69.130758702138891
aF-64.387527719580703
aF-59.999723772340943
aF-55.886535721267464
aF-55.537622513526792
aF-48.7720800067734
aF-49.08718360330613
aF-51.32381914996644
asg56
S'run 0'
p68
sbasg10
(lp69
g1
(g61
g3
NtRp70
(dp71
g64
I01
sg65
Nsg66
(lp72
S'unknown'
p73
aS'unknown'
p74
aS'unknown'
p75
aS'unknown'
p76
aS'unknown'
p77
aS'unknown'
p78
aS'unknown'
p79
aS'unknown'
p80
aS'unknown'
p81
aS'unknown'
p82
aS'unknown'
p83
aS'unknown'
p84
aS'unknown'
p85
aS'unknown'
p86
aS'unknown'
p87
aS'unknown'
p88
aS'unknown'
p89
aS'unknown'
p90
aS'unknown'
p91
aS'unknown'
p92
asg56
g68
sbasg12
(lp93
g1
(g61
g3
NtRp94
(dp95
g64
I01
sg65
Nsg66
(lp96
S'unknown'
p97
aS'unknown'
p98
aS'unknown'
p99
aS'unknown'
p100
aS'unknown'
p101
aS'unknown'
p102
aS'unknown'
p103
aS'unknown'
p104
aS'unknown'
p105
aS'unknown'
p106
aS'unknown'
p107
aS'unknown'
p108
aS'unknown'
p109
aS'unknown'
p110
aS'unknown'
p111
aS'unknown'
p112
aS'unknown'
p113
aS'unknown'
p114
aS'unknown'
p115
aS'unknown'
p116
asg56
g68
sbasg14
(lp117
g1
(g61
g3
NtRp118
(dp119
g64
I01
sg65
Nsg66
(lp120
S'opaque'
p121
aS'opaque'
p122
aS'opaque'
p123
aS'opaque'
p124
aS'opaque'
p125
aS'opaque'
p126
aS'opaque'
p127
aS'opaque'
p128
aS'opaque'
p129
aS'opaque'
p130
aS'opaque'
p131
aS'opaque'
p132
aS'opaque'
p133
aS'opaque'
p134
aS'opaque'
p135
aS'opaque'
p136
aS'opaque'
p137
aS'opaque'
p138
aS'opaque'
p139
aS'opaque'
p140
asg56
g68
sbasg16
(lp141
g1
(g61
g3
NtRp142
(dp143
g64
I01
sg65
Nsg66
(lp144
S'unknown'
p145
aS'unknown'
p146
aS'unknown'
p147
aS'unknown'
p148
aS'unknown'
p149
aS'unknown'
p150
aS'unknown'
p151
aS'unknown'
p152
aS'unknown'
p153
aS'unknown'
p154
aS'unknown'
p155
aS'unknown'
p156
aS'unknown'
p157
aS'unknown'
p158
aS'unknown'
p159
aS'unknown'
p160
aS'unknown'
p161
aS'unknown'
p162
aS'unknown'
p163
aS'unknown'
p164
asg56
g68
sbasg18
(lp165
g1
(g61
g3
NtRp166
(dp167
g64
I01
sg65
Nsg66
(lp168
F-5.4838647494868331
aF-5.4838647494868331
aF-5.090506605043351
aF-5.090506605043351
aF-5.3605162436014044
aF-3.8436019793905909
aF-3.8436019793905909
aF-4.8363703660023063
aF-4.8363703660023063
aF-5.6651220829979181
aF-5.5094252160652397
aF-5.0930894801295219
aF-5.0930894801295219
aF-5.6774404978233557
aF-5.9711006275074379
aF-5.7202751810002068
aF-5.1725724305762837
aF-5.1725724305762837
aF-5.1725724305762837
aF-5.8982861174326509
asg56
g68
sbasg20
(lp169
g1
(g61
g3
NtRp170
(dp171
g64
I01
sg65
Nsg66
(lp172
I22
aI14
aI14
aI14
aI14
aI14
aI14
aI14
aI14
aI14
aI14
aI14
aI14
aI14
aI14
aI14
aI14
aI14
aI14
aI14
asg56
g68
sbasg22
(lp173
g1
(g61
g3
NtRp174
(dp175
g64
I01
sg65
Nsg66
(lp176
S'unknown'
p177
aS'unknown'
p178
aS'unknown'
p179
aS'unknown'
p180
aS'unknown'
p181
aS'unknown'
p182
aS'unknown'
p183
aS'unknown'
p184
aS'unknown'
p185
aS'unknown'
p186
aS'unknown'
p187
aS'unknown'
p188
aS'unknown'
p189
aS'unknown'
p190
aS'unknown'
p191
aS'unknown'
p192
aS'unknown'
p193
aS'unknown'
p194
aS'unknown'
p195
aS'unknown'
p196
asg56
g68
sbasg24
(lp197
g1
(g61
g3
NtRp198
(dp199
g64
I01
sg65
Nsg66
(lp200
F66.936555147171021
aF21.932845115661621
aF12.496142148971558
aF11.886982917785645
aF9.4376168251037598
aF9.6913039684295654
aF11.813562154769897
aF10.849547863006592
aF9.5735220909118652
aF9.2359120845794678
aF10.312606811523438
aF9.7239530086517334
aF10.57515811920166
aF10.285058975219727
aF8.4934549331665039
aF8.3879358768463135
aF8.4491281509399414
aF9.6623749732971191
aF8.9119160175323486
aF8.1330440044403076
asg56
g68
sbasg25
(lp201
g1
(g61
g3
NtRp202
(dp203
g64
I01
sg65
Nsg66
(lp204
F-18.305973264483175
aF-31.113720031782421
aF-37.065340691988695
aF-36.171027433171275
aF-33.014985594942573
aF-33.014985594942573
aF-31.590037036731246
aF-30.092451193135716
aF-30.092451193135716
aF-29.948377490507923
aF-29.789417272576308
aF-30.271390537997338
aF-30.271390537997338
aF-30.271390537997338
aF-30.271390537997338
aF-29.769780780687558
aF-28.482483904841917
aF-24.61574889722802
aF-27.721808466162162
aF-27.721808466162162
asg56
g68
sbasg27
(lp205
g1
(g61
g3
NtRp206
(dp207
g64
I01
sg65
Nsg66
(lp208
F24.438840994978051
aF24.438840994978051
aF24.438840994978051
aF14.895577382895823
aF14.75208729612055
aF14.75208729612055
aF9.4803542601672071
aF9.4803542601672071
aF4.5847565734089422
aF3.8799878842255238
aF3.8799878842255238
aF3.8799878842255238
aF5.1729317382964775
aF5.1729317382964775
aF5.1729317382964775
aF1.9818183897118553
aF1.9543717738294824
aF1.0778482569901122
aF2.1045409415568286
aF2.1045409415568286
asg56
g68
sbasg29
(lp209
g1
(g61
g3
NtRp210
(dp211
g64
I01
sg65
Nsg66
(lp212
F-7.9495752489959557
aF-0.016982223512144401
aF0.18711880743549614
aF7.1131874561314419
aF7.1131874561314419
aF7.3419771656398609
aF7.3419771656398609
aF3.5720089879822865
aF3.3887845956903058
aF3.3887845956903058
aF3.3887845956903058
aF2.3756869392652171
aF-3.8229954497240377
aF0.39608033252280705
aF-1.9075175673295135
aF-1.3278308613751406
aF-1.0322279702466304
aF-0.9864231928311612
aF-1.6948526413705522
aF-0.21078408188785858
asg56
g68
sbasg31
(lp213
g1
(g61
g3
NtRp214
(dp215
g64
I01
sg65
Nsg66
(lp216
S'unknown'
p217
aS'unknown'
p218
aS'unknown'
p219
aS'unknown'
p220
aS'unknown'
p221
aS'unknown'
p222
aS'unknown'
p223
aS'unknown'
p224
aS'unknown'
p225
aS'unknown'
p226
aS'unknown'
p227
aS'unknown'
p228
aS'unknown'
p229
aS'unknown'
p230
aS'unknown'
p231
aS'unknown'
p232
aS'unknown'
p233
aS'unknown'
p234
aS'unknown'
p235
aS'unknown'
p236
asg56
g68
sbasg33
(lp237
g1
(g61
g3
NtRp238
(dp239
g64
I01
sg65
Nsg66
(lp240
(lp241
F0
aF1
aF2
aF3
aF4
aF5
aF6
aF7
aF8
aF9
aF10
aF11
aF12
aF13
aF14
aF15
aa(lp242
F0
aF1
aF2
aF3
aF4
aF5
aF6
aF7
aF8
aF9
aF10
aF11
aF12
aF13
aF14
aF15
aa(lp243
F0
aF1
aF2
aF3
aF4
aF5
aF6
aF7
aF8
aF9
aF10
aF11
aF12
aF13
aF14
aF15
aa(lp244
F0
aF1
aF2
aF3
aF4
aF5
aF6
aF7
aF8
aF9
aF10
aF11
aF12
aF13
aF14
aF15
aa(lp245
F0
aF1
aF2
aF3
aF4
aF5
aF6
aF7
aF8
aF9
aF10
aF11
aF12
aF13
aF14
aF15
aa(lp246
F0
aF1
aF2
aF3
aF4
aF5
aF6
aF7
aF8
aF9
aF10
aF11
aF12
aF13
aF14
aF15
aa(lp247
F0
aF1
aF2
aF3
aF4
aF5
aF6
aF7
aF8
aF9
aF10
aF11
aF12
aF13
aF14
aF15
aa(lp248
F0
aF1
aF2
aF3
aF4
aF5
aF6
aF7
aF8
aF9
aF10
aF11
aF12
aF13
aF14
aF15
aa(lp249
F0
aF1
aF2
aF3
aF4
aF5
aF6
aF7
aF8
aF9
aF10
aF11
aF12
aF13
aF14
aF15
aa(lp250
F0
aF1
aF2
aF3
aF4
aF5
aF6
aF7
aF8
aF9
aF10
aF11
aF12
aF13
aF14
aF15
aa(lp251
F0
aF1
aF2
aF3
aF4
aF5
aF6
aF7
aF8
aF9
aF10
aF11
aF12
aF13
aF14
aF15
aa(lp252
F0
aF1
aF2
aF3
aF4
aF5
aF6
aF7
aF8
aF9
aF10
aF11
aF12
aF13
aF14
aF15
aa(lp253
F0
aF1
aF2
aF3
aF4
aF5
aF6
aF7
aF8
aF9
aF10
aF11
aF12
aF13
aF14
aF15
aa(lp254
F0
aF1
aF2
aF3
aF4
aF5
aF6
aF7
aF8
aF9
aF10
aF11
aF12
aF13
aF14
aF15
aa(lp255
F0
aF1
aF2
aF3
aF4
aF5
aF6
aF7
aF8
aF9
aF10
aF11
aF12
aF13
aF14
aF15
aa(lp256
F0
aF1
aF2
aF3
aF4
aF5
aF6
aF7
aF8
aF9
aF10
aF11
aF12
aF13
aF14
aF15
aa(lp257
F0
aF1
aF2
aF3
aF4
aF5
aF6
aF7
aF8
aF9
aF10
aF11
aF12
aF13
aF14
aF15
aa(lp258
F0
aF1
aF2
aF3
aF4
aF5
aF6
aF7
aF8
aF9
aF10
aF11
aF12
aF13
aF14
aF15
aa(lp259
F0
aF1
aF2
aF3
aF4
aF5
aF6
aF7
aF8
aF9
aF10
aF11
aF12
aF13
aF14
aF15
aa(lp260
F0
aF1
aF2
aF3
aF4
aF5
aF6
aF7
aF8
aF9
aF10
aF11
aF12
aF13
aF14
aF15
aasg56
g68
sbasg35
(lp261
g1
(g61
g3
NtRp262
(dp263
g64
I01
sg65
Nsg66
(lp264
S'unknown'
p265
aS'unknown'
p266
aS'unknown'
p267
aS'unknown'
p268
aS'unknown'
p269
aS'unknown'
p270
aS'unknown'
p271
aS'unknown'
p272
aS'unknown'
p273
aS'unknown'
p274
aS'unknown'
p275
aS'unknown'
p276
aS'unknown'
p277
aS'unknown'
p278
aS'unknown'
p279
aS'unknown'
p280
aS'unknown'
p281
aS'unknown'
p282
aS'unknown'
p283
aS'unknown'
p284
asg56
g68
sbassS'data'
p285
(lp286
(S'(get_bird_pos 26 5)'
I8
tp287
a(S'(get_bird_pos 26 8)'
I8
tp288
a(S'(get_bird_pos 26 9)'
I8
tp289
a(S'(get_bird_pos 26 11)'
I14
tp290
a(S'(get_bird_pos 26 13)'
I14
tp291
a(S'(get_bird_pos 26 14)'
I14
tp292
a(S'(get_bird_pos 26 16)'
I14
tp293
a(S'(get_bird_pos 26 18)'
I15
tp294
asb.